
J2.elf:     file format elf32-littlenios2
J2.elf
architecture: nios2, flags 0x00000112:
EXEC_P, HAS_SYMS, D_PAGED
start address 0x02000000

Program Header:
    LOAD off    0x00001000 vaddr 0x02000000 paddr 0x02000000 align 2**12
         filesz 0x0000b5dc memsz 0x0000b81c flags rwx
    LOAD off    0x0000c800 vaddr 0x04004800 paddr 0x04004800 align 2**12
         filesz 0x00000000 memsz 0x00000000 flags r-x

Sections:
Idx Name          Size      VMA       LMA       File off  Algn
  0 .entry        00000000  04004800  04004800  0000c800  2**5
                  CONTENTS, ALLOC, LOAD, READONLY, CODE
  1 .text         00009650  02000000  02000000  00001000  2**2
                  CONTENTS, ALLOC, LOAD, READONLY, CODE
  2 .rodata       0000072c  02009650  02009650  0000a650  2**2
                  CONTENTS, ALLOC, LOAD, READONLY, DATA
  3 .rwdata       00001860  02009d7c  02009d7c  0000ad7c  2**2
                  CONTENTS, ALLOC, LOAD, DATA, SMALL_DATA
  4 .bss          00000240  0200b5dc  0200b5dc  0000c5dc  2**2
                  ALLOC, SMALL_DATA
  5 .comment      00000026  00000000  00000000  0000c800  2**0
                  CONTENTS, READONLY
  6 .debug_aranges 00000960  00000000  00000000  0000c828  2**3
                  CONTENTS, READONLY, DEBUGGING
  7 .debug_pubnames 00000f84  00000000  00000000  0000d188  2**0
                  CONTENTS, READONLY, DEBUGGING
  8 .debug_info   0001330b  00000000  00000000  0000e10c  2**0
                  CONTENTS, READONLY, DEBUGGING
  9 .debug_abbrev 00005362  00000000  00000000  00021417  2**0
                  CONTENTS, READONLY, DEBUGGING
 10 .debug_line   0000d358  00000000  00000000  00026779  2**0
                  CONTENTS, READONLY, DEBUGGING
 11 .debug_frame  00001300  00000000  00000000  00033ad4  2**2
                  CONTENTS, READONLY, DEBUGGING
 12 .debug_str    000015e0  00000000  00000000  00034dd4  2**0
                  CONTENTS, READONLY, DEBUGGING
 13 .debug_loc    000042c9  00000000  00000000  000363b4  2**0
                  CONTENTS, READONLY, DEBUGGING
 14 .debug_alt_sim_info 00000020  00000000  00000000  0003a680  2**2
                  CONTENTS, READONLY, DEBUGGING
 15 .debug_ranges 00000460  00000000  00000000  0003a6a0  2**0
                  CONTENTS, READONLY, DEBUGGING
 16 .thread_model 00000003  00000000  00000000  0003d2b8  2**0
                  CONTENTS, READONLY
 17 .cpu          00000003  00000000  00000000  0003d2bb  2**0
                  CONTENTS, READONLY
 18 .qsys         00000001  00000000  00000000  0003d2be  2**0
                  CONTENTS, READONLY
 19 .simulation_enabled 00000001  00000000  00000000  0003d2bf  2**0
                  CONTENTS, READONLY
 20 .sysid_hash   00000004  00000000  00000000  0003d2c0  2**0
                  CONTENTS, READONLY
 21 .sysid_base   00000004  00000000  00000000  0003d2c4  2**0
                  CONTENTS, READONLY
 22 .sysid_time   00000004  00000000  00000000  0003d2c8  2**0
                  CONTENTS, READONLY
 23 .stderr_dev   00000009  00000000  00000000  0003d2cc  2**0
                  CONTENTS, READONLY
 24 .stdin_dev    00000009  00000000  00000000  0003d2d5  2**0
                  CONTENTS, READONLY
 25 .stdout_dev   00000009  00000000  00000000  0003d2de  2**0
                  CONTENTS, READONLY
 26 .sopc_system_name 00000007  00000000  00000000  0003d2e7  2**0
                  CONTENTS, READONLY
 27 .quartus_project_dir 00000039  00000000  00000000  0003d2ee  2**0
                  CONTENTS, READONLY
 28 .jdi          00004972  00000000  00000000  0003d327  2**0
                  CONTENTS, READONLY
SYMBOL TABLE:
04004800 l    d  .entry	00000000 .entry
02000000 l    d  .text	00000000 .text
02009650 l    d  .rodata	00000000 .rodata
02009d7c l    d  .rwdata	00000000 .rwdata
0200b5dc l    d  .bss	00000000 .bss
00000000 l    d  .comment	00000000 .comment
00000000 l    d  .debug_aranges	00000000 .debug_aranges
00000000 l    d  .debug_pubnames	00000000 .debug_pubnames
00000000 l    d  .debug_info	00000000 .debug_info
00000000 l    d  .debug_abbrev	00000000 .debug_abbrev
00000000 l    d  .debug_line	00000000 .debug_line
00000000 l    d  .debug_frame	00000000 .debug_frame
00000000 l    d  .debug_str	00000000 .debug_str
00000000 l    d  .debug_loc	00000000 .debug_loc
00000000 l    d  .debug_alt_sim_info	00000000 .debug_alt_sim_info
00000000 l    d  .debug_ranges	00000000 .debug_ranges
0200008c l       .text	00000000 alt_after_alt_main
00000000 l    df *ABS*	00000000 data.c
00000000 l    df *ABS*	00000000 main.c
00000000 l    df *ABS*	00000000 print_functions.c
00000000 l    df *ABS*	00000000 print_screens.c
00000000 l    df *ABS*	00000000 process_entry.c
00000000 l    df *ABS*	00000000 w_pow.c
00000000 l    df *ABS*	00000000 e_pow.c
02009bb0 l     O .rodata	00000010 bp
02009bc0 l     O .rodata	00000010 dp_l
02009bd0 l     O .rodata	00000010 dp_h
00000000 l    df *ABS*	00000000 e_sqrt.c
00000000 l    df *ABS*	00000000 s_fabs.c
00000000 l    df *ABS*	00000000 s_finite.c
00000000 l    df *ABS*	00000000 s_isnand.c
00000000 l    df *ABS*	00000000 s_lib_ver.c
00000000 l    df *ABS*	00000000 s_matherr.c
00000000 l    df *ABS*	00000000 s_nan.c
00000000 l    df *ABS*	00000000 s_rint.c
02009be0 l     O .rodata	00000010 TWO52
00000000 l    df *ABS*	00000000 s_scalbn.c
00000000 l    df *ABS*	00000000 s_copysign.c
00000000 l    df *ABS*	00000000 dp-bit.c
02003efc l     F .text	00000410 _fpadd_parts
00000000 l    df *ABS*	00000000 dp-bit.c
00000000 l    df *ABS*	00000000 dp-bit.c
00000000 l    df *ABS*	00000000 dp-bit.c
00000000 l    df *ABS*	00000000 dp-bit.c
00000000 l    df *ABS*	00000000 dp-bit.c
00000000 l    df *ABS*	00000000 dp-bit.c
00000000 l    df *ABS*	00000000 dp-bit.c
00000000 l    df *ABS*	00000000 dp-bit.c
00000000 l    df *ABS*	00000000 dp-bit.c
00000000 l    df *ABS*	00000000 dp-bit.c
00000000 l    df *ABS*	00000000 dp-bit.c
00000000 l    df *ABS*	00000000 lib2-divmod.c
02005028 l     F .text	0000007c udivmodsi4
00000000 l    df *ABS*	00000000 libgcc2.c
00000000 l    df *ABS*	00000000 libgcc2.c
00000000 l    df *ABS*	00000000 dp-bit.c
00000000 l    df *ABS*	00000000 dp-bit.c
00000000 l    df *ABS*	00000000 dp-bit.c
00000000 l    df *ABS*	00000000 libgcc2.c
00000000 l    df *ABS*	00000000 errno.c
00000000 l    df *ABS*	00000000 impure.c
02009d7c l     O .rwdata	00000400 impure_data
00000000 l    df *ABS*	00000000 alt_main.c
00000000 l    df *ABS*	00000000 alt_sys_init.c
0200a17c l     O .rwdata	0000009c vic_0
0200a218 l     O .rwdata	000000c4 epcs_flash_controller
0200a2dc l     O .rwdata	00001060 jtag_uart
0200b33c l     O .rwdata	000000c4 uart
020058e4 l     F .text	00000038 alt_dev_reg
00000000 l    df *ABS*	00000000 altera_avalon_epcs_flash_controller.c
020059a8 l     F .text	000001ec alt_epcs_flash_query
02005970 l     F .text	00000038 alt_flash_device_register
02005b94 l     F .text	00000108 alt_epcs_flash_memcmp
02006020 l     F .text	00000094 alt_epcs_test_address
00000000 l    df *ABS*	00000000 altera_avalon_jtag_uart_fd.c
00000000 l    df *ABS*	00000000 altera_avalon_jtag_uart_init.c
02006458 l     F .text	00000228 altera_avalon_jtag_uart_irq
02006680 l     F .text	000000b0 altera_avalon_jtag_uart_timeout
00000000 l    df *ABS*	00000000 altera_avalon_jtag_uart_ioctl.c
00000000 l    df *ABS*	00000000 altera_avalon_jtag_uart_read.c
00000000 l    df *ABS*	00000000 altera_avalon_jtag_uart_write.c
00000000 l    df *ABS*	00000000 altera_avalon_timer_sc.c
02006d54 l     F .text	0000009c alt_avalon_timer_sc_irq
00000000 l    df *ABS*	00000000 altera_avalon_uart_fd.c
00000000 l    df *ABS*	00000000 altera_avalon_uart_init.c
02007040 l     F .text	0000009c altera_avalon_uart_irq
020070dc l     F .text	000000e0 altera_avalon_uart_rxirq
020071bc l     F .text	0000015c altera_avalon_uart_txirq
00000000 l    df *ABS*	00000000 altera_avalon_uart_read.c
02007600 l     F .text	00000060 alt_get_errno
00000000 l    df *ABS*	00000000 altera_avalon_uart_write.c
02007880 l     F .text	00000060 alt_get_errno
00000000 l    df *ABS*	00000000 altera_vic_irq_init.c
02009d50 l     O .rodata	00000020 VEC_SIZE_ARRAY.1587
00000000 l    df *ABS*	00000000 altera_vic_isr_register.c
00000000 l    df *ABS*	00000000 epcs_commands.c
02007d24 l     F .text	00000038 epcs_await_wip_released
02007d5c l     F .text	00000038 epcs_test_wip
00000000 l    df *ABS*	00000000 alt_alarm_start.c
00000000 l    df *ABS*	00000000 alt_close.c
02008324 l     F .text	00000060 alt_get_errno
00000000 l    df *ABS*	00000000 alt_dev.c
02008384 l     F .text	0000002c alt_dev_null_write
00000000 l    df *ABS*	00000000 alt_dev_llist_insert.c
02008464 l     F .text	00000060 alt_get_errno
00000000 l    df *ABS*	00000000 alt_do_ctors.c
00000000 l    df *ABS*	00000000 alt_do_dtors.c
00000000 l    df *ABS*	00000000 alt_errno.c
00000000 l    df *ABS*	00000000 alt_flash_dev.c
00000000 l    df *ABS*	00000000 alt_io_redirect.c
0200865c l     F .text	000000c4 alt_open_fd
00000000 l    df *ABS*	00000000 alt_open.c
02008798 l     F .text	000000dc alt_file_locked
020089fc l     F .text	00000060 alt_get_errno
00000000 l    df *ABS*	00000000 alt_release_fd.c
00000000 l    df *ABS*	00000000 alt_tick.c
00000000 l    df *ABS*	00000000 altera_avalon_spi.c
00000000 l    df *ABS*	00000000 alt_find_dev.c
00000000 l    df *ABS*	00000000 alt_find_file.c
00000000 l    df *ABS*	00000000 alt_get_fd.c
00000000 l    df *ABS*	00000000 atexit.c
00000000 l    df *ABS*	00000000 exit.c
00000000 l    df *ABS*	00000000 int_errno.c
00000000 l    df *ABS*	00000000 memcmp.c
00000000 l    df *ABS*	00000000 memcpy.c
00000000 l    df *ABS*	00000000 strlen.c
00000000 l    df *ABS*	00000000 __atexit.c
00000000 l    df *ABS*	00000000 __call_atexit.c
02009438 l     F .text	00000004 register_fini
00000000 l    df *ABS*	00000000 alt_exit.c
020095ec l     F .text	00000040 alt_sim_halt
0200b5dc g     O .bss	00000008 sSUI
02005f1c g     F .text	00000090 alt_epcs_flash_get_info
020057b0 g     F .text	0000006c alt_main
02003a6c g     F .text	00000018 fabs
02004a1c g     F .text	00000088 __eqdf2
02001f40 g     F .text	0000004c vSetThrottle
020006f8 g     F .text	00000104 vCursor
02001fe0 g     F .text	0000003c vEraseCommand
02004b2c g     F .text	00000088 __gtdf2
020057a0 g     F .text	00000010 __errno
02007ca8 g     F .text	0000007c epcs_sector_erase
04004800 g     F .entry	00000000 __reset
0200b5fc g     O .bss	00000004 errno
020007fc g     F .text	0000007c vPrintTxt
0200b600 g     O .bss	00000034 sDATA
0200b5e8 g     O .bss	00000004 alt_argv
020135a8 g       *ABS*	00000000 _gp
0200b428 g     O .rwdata	00000180 alt_fd_list
02007e98 g     F .text	00000064 epcs_write_status_register
020078e0 g       .text	00000000 VIC_0_VECTOR_TABLE
02008ec4 g     F .text	00000094 alt_find_dev
020091f0 g     F .text	000000a0 memcpy
02004cc4 g     F .text	000000f8 __floatsidf
02008720 g     F .text	00000078 alt_io_redirect
02004bb4 g     F .text	00000088 __ltdf2
02009650 g       *ABS*	00000000 __DTOR_END__
02000668 g     F .text	00000058 vPutChar
020060b4 g     F .text	00000110 alt_epcs_flash_write_block
02006898 g     F .text	00000250 altera_avalon_jtag_uart_read
00000000  w      *UND*	00000000 malloc
02005164 g     F .text	00000008 __udivsi3
02001160 g     F .text	00000524 vPrintDynamicScreen1
0200b5c4 g     O .rwdata	00000004 alt_max_fd
020055a0 g     F .text	00000138 __unpack_d
020019ec g     F .text	0000010c vInitializePWMs
0200438c g     F .text	00000074 __adddf3
02005fac g     F .text	00000074 alt_epcs_flash_erase_block
0200b5a8 g     O .rwdata	00000004 __fdlib_version
0200b5b0 g     O .rwdata	00000004 _global_impure_ptr
0200b81c g       *ABS*	00000000 __bss_end
02008b80 g     F .text	0000010c alt_tick
02004e94 g     F .text	00000194 __floatunsidf
02006f78 g     F .text	000000c8 altera_avalon_uart_init
02008abc g     F .text	000000c4 alt_alarm_stop
0200b400 g     O .rwdata	00000028 alt_dev_null
02003ae8 g     F .text	00000210 rint
02004dbc g     F .text	000000d8 __fixdfsi
02007960 g       .text	00000000 alt_shadow_non_preemptive_interrupt
0200b5bc g     O .rwdata	00000008 alt_dev_list
02001e6c g     F .text	000000d4 vSetServoPWM
02004c3c g     F .text	00000088 __ledf2
0200516c g     F .text	00000008 __umodsi3
02007fd4 g     F .text	0000006c epcs_read_electronic_signature
0200b81c g       *ABS*	00000000 end
02007660 g     F .text	00000220 altera_avalon_uart_write
02006398 g     F .text	000000c0 altera_avalon_jtag_uart_init
0200b634 g     O .bss	00000020 sADC
0200964c g       *ABS*	00000000 __CTOR_LIST__
04000000 g       *ABS*	00000000 __alt_stack_pointer
02006df0 g     F .text	00000090 alt_avalon_timer_sc_init
02006ed8 g     F .text	00000058 altera_avalon_uart_write_fd
0200520c g     F .text	00000080 __clzsi2
02006f30 g     F .text	00000048 altera_avalon_uart_close_fd
02006ae8 g     F .text	0000026c altera_avalon_jtag_uart_write
0200943c g     F .text	000001b0 __call_exitprocs
020006c0 g     F .text	00000038 vPrintNum
02000000 g     F .text	00000090 _start
0200b5f4 g     O .bss	00000004 _alt_tick_rate
02008c8c g     F .text	00000238 alt_avalon_spi_command
0200b5f8 g     O .bss	00000004 _alt_nticks
0200585c g     F .text	00000088 alt_sys_init
02009304 g     F .text	00000134 __register_exitproc
0200175c g     F .text	00000114 vMonitorDiagnostic
02001e14 g     F .text	00000058 filter
020024a4 g     F .text	00001300 __ieee754_pow
02006730 g     F .text	00000074 altera_avalon_jtag_uart_close
0200201c g     F .text	00000488 pow
02007c48 g     F .text	00000060 epcs_read_status_register
02001684 g     F .text	000000d8 vProcessNewKey
02006250 g     F .text	00000058 altera_avalon_jtag_uart_read_fd
02009078 g     F .text	000000b8 alt_get_fd
02001f8c g     F .text	00000054 vEchoChar
020056d8 g     F .text	000000c8 __fpcmp_parts_d
02008040 g     F .text	00000068 epcs_read_device_id
0200917c g     F .text	00000074 memcmp
02006300 g     F .text	00000048 altera_avalon_jtag_uart_close_fd
0200b81c g       *ABS*	00000000 __alt_stack_base
02006348 g     F .text	00000050 altera_avalon_jtag_uart_ioctl_fd
020047c4 g     F .text	00000258 __divdf3
02001af8 g     F .text	0000031c processing
02004400 g     F .text	000003c4 __muldf3
04004800 g       *ABS*	00000000 __alt_mem_epcs_flash_controller
02000878 g     F .text	000001a4 vPrintNlz
02008f58 g     F .text	00000120 alt_find_file
020083b0 g     F .text	000000b4 alt_dev_llist_insert
0200b5cc g     O .rwdata	00000008 alt_flash_dev_list
0200b5dc g       *ABS*	00000000 __bss_start
02000090 g     F .text	000005d8 main
0200b5ec g     O .bss	00000004 alt_envp
020062a8 g     F .text	00000058 altera_avalon_jtag_uart_write_fd
02003ad0 g     F .text	00000008 matherr
0200b68c g     O .bss	00000190 _atexit0
0200b5c8 g     O .rwdata	00000004 alt_errno
020050a4 g     F .text	00000060 __divsi3
02009bf0 g     O .rodata	00000014 __thenan_df
02009650 g       *ABS*	00000000 __CTOR_END__
02003a84 g     F .text	0000001c finite
0200b5f0 g     O .bss	00000004 alt_vic_dev_list
02005c9c g     F .text	00000280 alt_epcs_flash_write
02009650 g       *ABS*	00000000 __DTOR_LIST__
02003ed8 g     F .text	00000024 copysign
02004aa4 g     F .text	00000088 __nedf2
0200581c g     F .text	00000040 alt_irq_init
02008a5c g     F .text	00000060 alt_release_fd
02009c04 g     O .rodata	00000100 __clz_tab
02009130 g     F .text	00000014 atexit
0200b5ac g     O .rwdata	00000004 _impure_ptr
0200b5e4 g     O .bss	00000004 alt_argc
02003cf8 g     F .text	000001e0 scalbn
0200b654 g     O .bss	00000020 sADC_F
02008528 g     F .text	00000064 _do_dtors
02000000 g       *ABS*	00000000 __alt_mem_sdram_0
02007978 g     F .text	0000015c alt_vic_irq_init
0200b5b4 g     O .rwdata	00000008 alt_fs_list
02001870 g     F .text	0000017c vProcessInputValue
02000ea4 g     F .text	000002bc vPrintStaticScreen1
02003ad8 g     F .text	00000010 nan
0200b674 g     O .bss	00000018 sRCVR
02000a1c g     F .text	00000488 vPrintFix
02007d94 g     F .text	000000b4 epcs_read_buffer
020037a4 g     F .text	000002c8 __ieee754_sqrt
04001000 g       *ABS*	00000000 __alt_mem_onchip_memory2
0200591c g     F .text	00000054 alt_epcs_flash_init
02007ad4 g     F .text	00000174 alt_ic_isr_register
0200b5dc g       *ABS*	00000000 _edata
02006e80 g     F .text	00000058 altera_avalon_uart_read_fd
0200b81c g       *ABS*	00000000 _end
0200858c g     F .text	0000007c alt_flash_open_dev
020067a4 g     F .text	000000f4 altera_avalon_jtag_uart_ioctl
02009144 g     F .text	00000038 exit
02008608 g     F .text	00000054 alt_flash_close_dev
02005104 g     F .text	00000060 __modsi3
04000000 g       *ABS*	00000000 __alt_data_end
02007318 g     F .text	00000060 altera_avalon_uart_close
0200962c g     F .text	00000020 _exit
02003aa0 g     F .text	00000030 __isnand
020080a8 g     F .text	00000180 alt_alarm_start
02005174 g     F .text	00000098 __muldi3
02009290 g     F .text	00000074 strlen
02007e48 g     F .text	00000050 epcs_write_enable
02008874 g     F .text	00000188 open
02007378 g     F .text	00000288 altera_avalon_uart_read
0200430c g     F .text	00000080 __subdf3
020061c4 g     F .text	0000008c alt_epcs_flash_read
0200b5d4 g     O .rwdata	00000008 alt_alarm_list
020084c4 g     F .text	00000064 _do_ctors
02008228 g     F .text	000000fc close
0200528c g     F .text	00000314 __pack_d
00000000  w      *UND*	00000000 free
02007efc g     F .text	000000d8 epcs_write_buffer



Disassembly of section .text:

02000000 <_start>:

    /* Assume the data cache size is always a power of two. */
#if NIOS2_DCACHE_SIZE > 0x8000
    movhi r2, %hi(NIOS2_DCACHE_SIZE)
#else
    movui r2, NIOS2_DCACHE_SIZE
 2000000:	00840014 	movui	r2,4096
#endif

0:
    initd 0(r2)
 2000004:	10000033 	initd	0(r2)
    addi r2, r2, -NIOS2_DCACHE_LINE_SIZE
 2000008:	10bff804 	addi	r2,r2,-32
    bgt r2, zero, 0b
 200000c:	00bffd16 	blt	zero,r2,2000004 <_start+0x4>
     * set, switch register set to 0 by writing zero to SSTATUS register and 
     * execute an ERET instruction that just jumps to the next PC address 
     * (use the NEXTPC instruction to get this).
     */
    
    rdctl r2, status
 2000010:	0005303a 	rdctl	r2,status
    
    /* Get the current register set number (STATUS.CRS). */
    andi r3, r2, NIOS2_STATUS_CRS_MSK
 2000014:	10ff000c 	andi	r3,r2,64512
    
    /* Skip switch register set if STATUS.CRS is 0.  */
    beq r3, zero, .Lskip_switch_reg_set
 2000018:	18000426 	beq	r3,zero,200002c <_start+0x2c>
    
    .set nobreak
    
    /* Current register set is non-zero, set SSTATUS to 0. */
    mov sstatus, zero
 200001c:	003d883a 	mov	r30,zero
    
    /* Get next pc and store in ea. */
    nextpc ea
 2000020:	003ae03a 	nextpc	ea
    
    /* Point to instruction after eret. */
    addi ea, ea, 8
 2000024:	ef400204 	addi	ea,ea,8
    
    /* 
     * Execute ERET instruction that just jumps to the next PC address 
     */
    eret
 2000028:	ef80083a 	eret
    
.Lskip_switch_reg_set:    
    mov r2, zero
 200002c:	0005883a 	mov	r2,zero
    
    /* Reset STATUS register */
    wrctl status, r2
 2000030:	1001703a 	wrctl	status,r2

    movui r3, NIOS2_NUM_OF_SHADOW_REG_SETS
 2000034:	00c001d4 	movui	r3,7
    
    /* Set up the stack pointer in register set 0. */
    movhi sp, %hi(__alt_stack_pointer)
 2000038:	06c10034 	movhi	sp,1024
    ori sp, sp, %lo(__alt_stack_pointer)
 200003c:	dec00014 	ori	sp,sp,0
    
    /* Set up the global pointer in register set 0. */
    movhi gp, %hi(_gp)
 2000040:	06808074 	movhi	gp,513
    ori gp, gp, %lo(_gp)     
 2000044:	d68d6a14 	ori	gp,gp,13736
     * Setup GP and SP for shadow register set 
     * from NIOS2_NUM_OF_SHADOW_REG_SETS to 0
     */

    /* Skip if number of register sets is 0. */
    beq r3, zero, .Lno_shadow_register_set
 2000048:	18000726 	beq	r3,zero,2000068 <_start+0x68>


    /* Add previous register set STATUS.PRS by 1 */
    movhi r4, 1
 200004c:	01000074 	movhi	r4,1
    add r2, r2, r4
 2000050:	1105883a 	add	r2,r2,r4

    /* Write STATUS */
    wrctl status, r2
 2000054:	1001703a 	wrctl	status,r2

    /* Clear r0 in the shadow register set (not done by hardware) */
    wrprs r0, r0
 2000058:	0000a03a 	wrprs	zero,zero

    /* Write the GP in previous register set */
    wrprs gp, gp
 200005c:	d034a03a 	wrprs	gp,gp
    wrprs sp, et

#endif /* ALT_INTERRUPT_STACK */

    /* Decrease number of register set counter by 1 */
    addi r3, r3, -1
 2000060:	18ffffc4 	addi	r3,r3,-1

    br .Lsetup_sp_and_gp_loop
 2000064:	003ff806 	br	2000048 <_start+0x48>
 */
#ifndef ALT_SIM_OPTIMIZE
    /* Log that the BSS is about to be cleared. */
    ALT_LOG_PUTS(alt_log_msg_bss)

    movhi r2, %hi(__bss_start)
 2000068:	00808034 	movhi	r2,512
    ori r2, r2, %lo(__bss_start)
 200006c:	10ad7714 	ori	r2,r2,46556

    movhi r3, %hi(__bss_end)
 2000070:	00c08034 	movhi	r3,512
    ori r3, r3, %lo(__bss_end)
 2000074:	18ee0714 	ori	r3,r3,47132

    beq r2, r3, 1f
 2000078:	10c00326 	beq	r2,r3,2000088 <_start+0x88>

0:
    stw zero, (r2)
 200007c:	10000015 	stw	zero,0(r2)
    addi r2, r2, 4
 2000080:	10800104 	addi	r2,r2,4
    bltu r2, r3, 0b
 2000084:	10fffd36 	bltu	r2,r3,200007c <_start+0x7c>

    /* Log that alt_main is about to be called. */
    ALT_LOG_PUTS(alt_log_msg_alt_main)

    /* Call the C entry point. It should never return. */
    call alt_main
 2000088:	20057b00 	call	20057b0 <alt_main>

0200008c <alt_after_alt_main>:

    /* Wait in infinite loop in case alt_main does return. */
alt_after_alt_main:
    br alt_after_alt_main
 200008c:	003fff06 	br	200008c <alt_after_alt_main>

02000090 <main>:
extern struct ADC_STRUCT 		sADC;
extern struct ADC_STRUCT 		sADC_F;
extern struct DATA_STRUCT		sDATA;

int main()
{
 2000090:	defffa04 	addi	sp,sp,-24
 2000094:	dfc00515 	stw	ra,20(sp)
 2000098:	df000415 	stw	fp,16(sp)
 200009c:	df000404 	addi	fp,sp,16
	//enum Bool { FALSE =0, TRUE };
	//enum Bool up = TRUE;

	//int PWM_Steering = 205;
	IOWR_ALTERA_AVALON_UART_CONTROL(UART_BASE,0);
 20000a0:	00810034 	movhi	r2,1024
 20000a4:	10950b04 	addi	r2,r2,21548
 20000a8:	10000035 	stwio	zero,0(r2)
	sSUI.ubEntryMode = ENTRY_MODE_D;
 20000ac:	00c08074 	movhi	r3,513
 20000b0:	18ed7704 	addi	r3,r3,-18980
 20000b4:	00800044 	movi	r2,1
 20000b8:	18800045 	stb	r2,1(r3)
//	pUART->sControl.word = 192;
//	pUART->sStatus.word =0;
//	pUART->txdata = 0;
//	pUART->rxdata = 0;
	//pUART->txdata = 96;
	vInitializePWMs();
 20000bc:	20019ec0 	call	20019ec <vInitializePWMs>
	//vPrintStaticScreen1();
	sSUI.ubEnableDisplay = 1;			// Start with update enabled =1, disabled=0
 20000c0:	00c08074 	movhi	r3,513
 20000c4:	18ed7704 	addi	r3,r3,-18980
 20000c8:	00800044 	movi	r2,1
 20000cc:	18800005 	stb	r2,0(r3)

	sDATA.ulDistance_Old = sDATA.ulDistance_Real;
 20000d0:	00808074 	movhi	r2,513
 20000d4:	10ad8004 	addi	r2,r2,-18944
 20000d8:	10c00517 	ldw	r3,20(r2)
 20000dc:	00808074 	movhi	r2,513
 20000e0:	10ad8004 	addi	r2,r2,-18944
 20000e4:	10c00615 	stw	r3,24(r2)

	int count = 0;
 20000e8:	e03fff15 	stw	zero,-4(fp)
 20000ec:	00000006 	br	20000f0 <main+0x60>
	//printf("\033[2J\033[1;1H");
	while(1)
	{

		IOWR_ALTERA_AVALON_PIO_DATA(PIO_0_BASE, count&0xFF);
 20000f0:	e0bfff17 	ldw	r2,-4(fp)
 20000f4:	10c03fcc 	andi	r3,r2,255
 20000f8:	00810034 	movhi	r2,1024
 20000fc:	10950004 	addi	r2,r2,21504
 2000100:	10c00035 	stwio	r3,0(r2)
		count++;
 2000104:	e0bfff17 	ldw	r2,-4(fp)
 2000108:	10800044 	addi	r2,r2,1
 200010c:	e0bfff15 	stw	r2,-4(fp)

		//hall effect sensor counter
		sDATA.ulDistance_Real= IORD_32DIRECT(SLAVE_TEMPLATE_1_BASE, DATA_IN_0 * 4);
 2000110:	00810034 	movhi	r2,1024
 2000114:	108e0004 	addi	r2,r2,14336
 2000118:	10800037 	ldwio	r2,0(r2)
 200011c:	1007883a 	mov	r3,r2
 2000120:	00808074 	movhi	r2,513
 2000124:	10ad8004 	addi	r2,r2,-18944
 2000128:	10c00515 	stw	r3,20(r2)
		// Else print the dynamic values
		sRCVR.ulChannel1= IORD_32DIRECT(SLAVE_TEMPLATE_0_BASE, DATA_IN_0 * 4); // channel 1
 200012c:	00810034 	movhi	r2,1024
 2000130:	108c0004 	addi	r2,r2,12288
 2000134:	10800037 	ldwio	r2,0(r2)
 2000138:	1007883a 	mov	r3,r2
 200013c:	00808074 	movhi	r2,513
 2000140:	10ad9d04 	addi	r2,r2,-18828
 2000144:	10c00015 	stw	r3,0(r2)
		sRCVR.ulChannel2= IORD_32DIRECT(SLAVE_TEMPLATE_0_BASE, DATA_IN_1 * 4); // channel 2
 2000148:	00810034 	movhi	r2,1024
 200014c:	108c1004 	addi	r2,r2,12352
 2000150:	10800037 	ldwio	r2,0(r2)
 2000154:	1007883a 	mov	r3,r2
 2000158:	00808074 	movhi	r2,513
 200015c:	10ad9d04 	addi	r2,r2,-18828
 2000160:	10c00115 	stw	r3,4(r2)
		sRCVR.ulChannel3= IORD_32DIRECT(SLAVE_TEMPLATE_0_BASE, DATA_IN_2 * 4); // channel 3
 2000164:	00810034 	movhi	r2,1024
 2000168:	108c2004 	addi	r2,r2,12416
 200016c:	10800037 	ldwio	r2,0(r2)
 2000170:	1007883a 	mov	r3,r2
 2000174:	00808074 	movhi	r2,513
 2000178:	10ad9d04 	addi	r2,r2,-18828
 200017c:	10c00215 	stw	r3,8(r2)
		sRCVR.ulChannel4= IORD_32DIRECT(SLAVE_TEMPLATE_0_BASE, DATA_IN_3 * 4); // channel 4
 2000180:	00810034 	movhi	r2,1024
 2000184:	108c3004 	addi	r2,r2,12480
 2000188:	10800037 	ldwio	r2,0(r2)
 200018c:	1007883a 	mov	r3,r2
 2000190:	00808074 	movhi	r2,513
 2000194:	10ad9d04 	addi	r2,r2,-18828
 2000198:	10c00315 	stw	r3,12(r2)
		sRCVR.ulChannel5= IORD_32DIRECT(SLAVE_TEMPLATE_0_BASE, DATA_IN_4 * 4); // channel 5
 200019c:	00810034 	movhi	r2,1024
 20001a0:	108c4004 	addi	r2,r2,12544
 20001a4:	10800037 	ldwio	r2,0(r2)
 20001a8:	1007883a 	mov	r3,r2
 20001ac:	00808074 	movhi	r2,513
 20001b0:	10ad9d04 	addi	r2,r2,-18828
 20001b4:	10c00415 	stw	r3,16(r2)
		sRCVR.ulChannel6= IORD_32DIRECT(SLAVE_TEMPLATE_0_BASE, DATA_IN_5 * 4); // channel 6
 20001b8:	00810034 	movhi	r2,1024
 20001bc:	108c5004 	addi	r2,r2,12608
 20001c0:	10800037 	ldwio	r2,0(r2)
 20001c4:	1007883a 	mov	r3,r2
 20001c8:	00808074 	movhi	r2,513
 20001cc:	10ad9d04 	addi	r2,r2,-18828
 20001d0:	10c00515 	stw	r3,20(r2)

		sADC.ulADC1 = IORD_32DIRECT(SLAVE_TEMPLATE_0_BASE, DATA_IN_6 * 4);//ADC channel 1
 20001d4:	00810034 	movhi	r2,1024
 20001d8:	108c6004 	addi	r2,r2,12672
 20001dc:	10800037 	ldwio	r2,0(r2)
 20001e0:	1007883a 	mov	r3,r2
 20001e4:	00808074 	movhi	r2,513
 20001e8:	10ad8d04 	addi	r2,r2,-18892
 20001ec:	10c00015 	stw	r3,0(r2)
		sADC.ulADC2 = IORD_32DIRECT(SLAVE_TEMPLATE_0_BASE, DATA_IN_7 * 4);//ADC channel 2
 20001f0:	00810034 	movhi	r2,1024
 20001f4:	108c7004 	addi	r2,r2,12736
 20001f8:	10800037 	ldwio	r2,0(r2)
 20001fc:	1007883a 	mov	r3,r2
 2000200:	00808074 	movhi	r2,513
 2000204:	10ad8d04 	addi	r2,r2,-18892
 2000208:	10c00115 	stw	r3,4(r2)
		sADC.ulADC3 = IORD_32DIRECT(SLAVE_TEMPLATE_0_BASE, DATA_IN_8 * 4);//ADC channel  3
 200020c:	00810034 	movhi	r2,1024
 2000210:	108c8004 	addi	r2,r2,12800
 2000214:	10800037 	ldwio	r2,0(r2)
 2000218:	1007883a 	mov	r3,r2
 200021c:	00808074 	movhi	r2,513
 2000220:	10ad8d04 	addi	r2,r2,-18892
 2000224:	10c00215 	stw	r3,8(r2)
		sADC.ulADC4 = IORD_32DIRECT(SLAVE_TEMPLATE_0_BASE, DATA_IN_9 * 4);//ADC channel  4
 2000228:	00810034 	movhi	r2,1024
 200022c:	108c9004 	addi	r2,r2,12864
 2000230:	10800037 	ldwio	r2,0(r2)
 2000234:	1007883a 	mov	r3,r2
 2000238:	00808074 	movhi	r2,513
 200023c:	10ad8d04 	addi	r2,r2,-18892
 2000240:	10c00315 	stw	r3,12(r2)
		sADC.ulADC5 = IORD_32DIRECT(SLAVE_TEMPLATE_0_BASE, DATA_IN_10 * 4);//ADC channel  5
 2000244:	00810034 	movhi	r2,1024
 2000248:	108ca004 	addi	r2,r2,12928
 200024c:	10800037 	ldwio	r2,0(r2)
 2000250:	1007883a 	mov	r3,r2
 2000254:	00808074 	movhi	r2,513
 2000258:	10ad8d04 	addi	r2,r2,-18892
 200025c:	10c00415 	stw	r3,16(r2)
		sADC.ulADC6 = IORD_32DIRECT(SLAVE_TEMPLATE_0_BASE, DATA_IN_11 * 4);//ADC channel  6
 2000260:	00810034 	movhi	r2,1024
 2000264:	108cb004 	addi	r2,r2,12992
 2000268:	10800037 	ldwio	r2,0(r2)
 200026c:	1007883a 	mov	r3,r2
 2000270:	00808074 	movhi	r2,513
 2000274:	10ad8d04 	addi	r2,r2,-18892
 2000278:	10c00515 	stw	r3,20(r2)
		sADC.ulADC7 = IORD_32DIRECT(SLAVE_TEMPLATE_0_BASE, DATA_IN_12 * 4);//ADC channel  7
 200027c:	00810034 	movhi	r2,1024
 2000280:	108cc004 	addi	r2,r2,13056
 2000284:	10800037 	ldwio	r2,0(r2)
 2000288:	1007883a 	mov	r3,r2
 200028c:	00808074 	movhi	r2,513
 2000290:	10ad8d04 	addi	r2,r2,-18892
 2000294:	10c00615 	stw	r3,24(r2)
		//sADC.ulADC8 = IORD_32DIRECT(SLAVE_TEMPLATE_0_BASE, DATA_IN_13 * 4);//ADC channel  8

		//automatic control if transmitter channel 5 toggled low
		sDATA.sBits.automatic = sRCVR.ulChannel5 < 75000 ? 1 : 0;
 2000298:	00808074 	movhi	r2,513
 200029c:	10ad9d04 	addi	r2,r2,-18828
 20002a0:	10c00417 	ldw	r3,16(r2)
 20002a4:	00800074 	movhi	r2,1
 20002a8:	10893dc4 	addi	r2,r2,9463
 20002ac:	10c5403a 	cmpgeu	r2,r2,r3
 20002b0:	01408074 	movhi	r5,513
 20002b4:	296d8004 	addi	r5,r5,-18944
 20002b8:	10803fcc 	andi	r2,r2,255
 20002bc:	1080004c 	andi	r2,r2,1
 20002c0:	1085883a 	add	r2,r2,r2
 20002c4:	1089883a 	add	r4,r2,r2
 20002c8:	28c00c17 	ldw	r3,48(r5)
 20002cc:	00bffec4 	movi	r2,-5
 20002d0:	1884703a 	and	r2,r3,r2
 20002d4:	1104b03a 	or	r2,r2,r4
 20002d8:	28800c15 	stw	r2,48(r5)

		//reset distance if channel 6 toggled high
		if (sRCVR.ulChannel6 < 75000)
 20002dc:	00808074 	movhi	r2,513
 20002e0:	10ad9d04 	addi	r2,r2,-18828
 20002e4:	10c00517 	ldw	r3,20(r2)
 20002e8:	00800074 	movhi	r2,1
 20002ec:	10893dc4 	addi	r2,r2,9463
 20002f0:	10c00636 	bltu	r2,r3,200030c <main+0x27c>
		{
			sDATA.sBits.distance_reset = 1;
 20002f4:	00808074 	movhi	r2,513
 20002f8:	10ad8004 	addi	r2,r2,-18944
 20002fc:	10c00c17 	ldw	r3,48(r2)
 2000300:	18c00094 	ori	r3,r3,2
 2000304:	10c00c15 	stw	r3,48(r2)
 2000308:	00000c06 	br	200033c <main+0x2ac>
		}
		else
		{
			sDATA.sBits.distance_reset = 0;
 200030c:	01008074 	movhi	r4,513
 2000310:	212d8004 	addi	r4,r4,-18944
 2000314:	20c00c17 	ldw	r3,48(r4)
 2000318:	00bfff44 	movi	r2,-3
 200031c:	1884703a 	and	r2,r3,r2
 2000320:	20800c15 	stw	r2,48(r4)
			sDATA.ulDistance_Old = sDATA.ulDistance_Real; //reset distance delta
 2000324:	00808074 	movhi	r2,513
 2000328:	10ad8004 	addi	r2,r2,-18944
 200032c:	10c00517 	ldw	r3,20(r2)
 2000330:	00808074 	movhi	r2,513
 2000334:	10ad8004 	addi	r2,r2,-18944
 2000338:	10c00615 	stw	r3,24(r2)
		}

		//if normal mode engaged run baljeets firmware control
		if (sDATA.sBits.testOrNormal == NORMAL)
 200033c:	00808074 	movhi	r2,513
 2000340:	10ad8004 	addi	r2,r2,-18944
 2000344:	10800c17 	ldw	r2,48(r2)
 2000348:	1080004c 	andi	r2,r2,1
 200034c:	1005003a 	cmpeq	r2,r2,zero
 2000350:	10009c1e 	bne	r2,zero,20005c4 <main+0x534>
		{

			if (sRCVR.ulChannel5 < 75000)
 2000354:	00808074 	movhi	r2,513
 2000358:	10ad9d04 	addi	r2,r2,-18828
 200035c:	10c00417 	ldw	r3,16(r2)
 2000360:	00800074 	movhi	r2,1
 2000364:	10893dc4 	addi	r2,r2,9463
 2000368:	10c08336 	bltu	r2,r3,2000578 <main+0x4e8>
			{

				sADC_F.ulADC1 = filter(sADC.ulADC1,sADC_F.ulADC1);
 200036c:	00808074 	movhi	r2,513
 2000370:	10ad8d04 	addi	r2,r2,-18892
 2000374:	11000017 	ldw	r4,0(r2)
 2000378:	00808074 	movhi	r2,513
 200037c:	10ad9504 	addi	r2,r2,-18860
 2000380:	11400017 	ldw	r5,0(r2)
 2000384:	2001e140 	call	2001e14 <filter>
 2000388:	1007883a 	mov	r3,r2
 200038c:	00808074 	movhi	r2,513
 2000390:	10ad9504 	addi	r2,r2,-18860
 2000394:	10c00015 	stw	r3,0(r2)
				sADC_F.ulADC2 = filter(sADC.ulADC2,sADC_F.ulADC2);
 2000398:	00808074 	movhi	r2,513
 200039c:	10ad8d04 	addi	r2,r2,-18892
 20003a0:	11000117 	ldw	r4,4(r2)
 20003a4:	00808074 	movhi	r2,513
 20003a8:	10ad9504 	addi	r2,r2,-18860
 20003ac:	11400117 	ldw	r5,4(r2)
 20003b0:	2001e140 	call	2001e14 <filter>
 20003b4:	1007883a 	mov	r3,r2
 20003b8:	00808074 	movhi	r2,513
 20003bc:	10ad9504 	addi	r2,r2,-18860
 20003c0:	10c00115 	stw	r3,4(r2)
				sADC_F.ulADC3 = filter(sADC.ulADC3,sADC_F.ulADC3);
 20003c4:	00808074 	movhi	r2,513
 20003c8:	10ad8d04 	addi	r2,r2,-18892
 20003cc:	11000217 	ldw	r4,8(r2)
 20003d0:	00808074 	movhi	r2,513
 20003d4:	10ad9504 	addi	r2,r2,-18860
 20003d8:	11400217 	ldw	r5,8(r2)
 20003dc:	2001e140 	call	2001e14 <filter>
 20003e0:	1007883a 	mov	r3,r2
 20003e4:	00808074 	movhi	r2,513
 20003e8:	10ad9504 	addi	r2,r2,-18860
 20003ec:	10c00215 	stw	r3,8(r2)
				sADC_F.ulADC4 = filter(sADC.ulADC4,sADC_F.ulADC4);
 20003f0:	00808074 	movhi	r2,513
 20003f4:	10ad8d04 	addi	r2,r2,-18892
 20003f8:	11000317 	ldw	r4,12(r2)
 20003fc:	00808074 	movhi	r2,513
 2000400:	10ad9504 	addi	r2,r2,-18860
 2000404:	11400317 	ldw	r5,12(r2)
 2000408:	2001e140 	call	2001e14 <filter>
 200040c:	1007883a 	mov	r3,r2
 2000410:	00808074 	movhi	r2,513
 2000414:	10ad9504 	addi	r2,r2,-18860
 2000418:	10c00315 	stw	r3,12(r2)
				sADC_F.ulADC5 = filter(sADC.ulADC5,sADC_F.ulADC5);
 200041c:	00808074 	movhi	r2,513
 2000420:	10ad8d04 	addi	r2,r2,-18892
 2000424:	11000417 	ldw	r4,16(r2)
 2000428:	00808074 	movhi	r2,513
 200042c:	10ad9504 	addi	r2,r2,-18860
 2000430:	11400417 	ldw	r5,16(r2)
 2000434:	2001e140 	call	2001e14 <filter>
 2000438:	1007883a 	mov	r3,r2
 200043c:	00808074 	movhi	r2,513
 2000440:	10ad9504 	addi	r2,r2,-18860
 2000444:	10c00415 	stw	r3,16(r2)
				sADC_F.ulADC6 = filter(sADC.ulADC6,sADC_F.ulADC6);
 2000448:	00808074 	movhi	r2,513
 200044c:	10ad8d04 	addi	r2,r2,-18892
 2000450:	11000517 	ldw	r4,20(r2)
 2000454:	00808074 	movhi	r2,513
 2000458:	10ad9504 	addi	r2,r2,-18860
 200045c:	11400517 	ldw	r5,20(r2)
 2000460:	2001e140 	call	2001e14 <filter>
 2000464:	1007883a 	mov	r3,r2
 2000468:	00808074 	movhi	r2,513
 200046c:	10ad9504 	addi	r2,r2,-18860
 2000470:	10c00515 	stw	r3,20(r2)
				sADC_F.ulADC7 = filter(sADC.ulADC7,sADC_F.ulADC7);
 2000474:	00808074 	movhi	r2,513
 2000478:	10ad8d04 	addi	r2,r2,-18892
 200047c:	11000617 	ldw	r4,24(r2)
 2000480:	00808074 	movhi	r2,513
 2000484:	10ad9504 	addi	r2,r2,-18860
 2000488:	11400617 	ldw	r5,24(r2)
 200048c:	2001e140 	call	2001e14 <filter>
 2000490:	1007883a 	mov	r3,r2
 2000494:	00808074 	movhi	r2,513
 2000498:	10ad9504 	addi	r2,r2,-18860
 200049c:	10c00615 	stw	r3,24(r2)

				processing(sADC_F.ulADC1,sADC_F.ulADC2,sADC_F.ulADC3,sADC_F.ulADC4,sADC_F.ulADC5,sADC_F.ulADC6,sADC_F.ulADC7);
 20004a0:	00808074 	movhi	r2,513
 20004a4:	10ad9504 	addi	r2,r2,-18860
 20004a8:	11400017 	ldw	r5,0(r2)
 20004ac:	00808074 	movhi	r2,513
 20004b0:	10ad9504 	addi	r2,r2,-18860
 20004b4:	11800117 	ldw	r6,4(r2)
 20004b8:	00808074 	movhi	r2,513
 20004bc:	10ad9504 	addi	r2,r2,-18860
 20004c0:	11c00217 	ldw	r7,8(r2)
 20004c4:	00808074 	movhi	r2,513
 20004c8:	10ad9504 	addi	r2,r2,-18860
 20004cc:	12000317 	ldw	r8,12(r2)
 20004d0:	00808074 	movhi	r2,513
 20004d4:	10ad9504 	addi	r2,r2,-18860
 20004d8:	10c00417 	ldw	r3,16(r2)
 20004dc:	00808074 	movhi	r2,513
 20004e0:	10ad9504 	addi	r2,r2,-18860
 20004e4:	11000517 	ldw	r4,20(r2)
 20004e8:	00808074 	movhi	r2,513
 20004ec:	10ad9504 	addi	r2,r2,-18860
 20004f0:	10800617 	ldw	r2,24(r2)
 20004f4:	d8c00015 	stw	r3,0(sp)
 20004f8:	d9000115 	stw	r4,4(sp)
 20004fc:	d8800215 	stw	r2,8(sp)
 2000500:	2809883a 	mov	r4,r5
 2000504:	300b883a 	mov	r5,r6
 2000508:	380d883a 	mov	r6,r7
 200050c:	400f883a 	mov	r7,r8
 2000510:	2001af80 	call	2001af8 <processing>
				if ((sDATA.ulDistance_Real - sDATA.ulDistance_Old) >= sDATA.ulDistanceLimit)
 2000514:	00808074 	movhi	r2,513
 2000518:	10ad8004 	addi	r2,r2,-18944
 200051c:	10c00517 	ldw	r3,20(r2)
 2000520:	00808074 	movhi	r2,513
 2000524:	10ad8004 	addi	r2,r2,-18944
 2000528:	10800617 	ldw	r2,24(r2)
 200052c:	1887c83a 	sub	r3,r3,r2
 2000530:	00808074 	movhi	r2,513
 2000534:	10ad8004 	addi	r2,r2,-18944
 2000538:	10800717 	ldw	r2,28(r2)
 200053c:	18800536 	bltu	r3,r2,2000554 <main+0x4c4>
				{
					//stop
					vSetThrottle(sDATA.ulThrottleNeutral);
 2000540:	00808074 	movhi	r2,513
 2000544:	10ad8004 	addi	r2,r2,-18944
 2000548:	11000b17 	ldw	r4,44(r2)
 200054c:	2001f400 	call	2001f40 <vSetThrottle>
 2000550:	00003106 	br	2000618 <main+0x588>
				}
				else //until distance limit set throttle and servo
				{
					vSetServoPWM(sDATA.ulServoPWM_C);
 2000554:	00808074 	movhi	r2,513
 2000558:	10ad8004 	addi	r2,r2,-18944
 200055c:	11000017 	ldw	r4,0(r2)
 2000560:	2001e6c0 	call	2001e6c <vSetServoPWM>
					vSetThrottle(sDATA.ulThrottlePWM_C);
 2000564:	00808074 	movhi	r2,513
 2000568:	10ad8004 	addi	r2,r2,-18944
 200056c:	11000817 	ldw	r4,32(r2)
 2000570:	2001f400 	call	2001f40 <vSetThrottle>
 2000574:	00002806 	br	2000618 <main+0x588>
				}
			}
			else //Manual control by remote
			{
				vSetServoPWM(((sRCVR.ulChannel4*2457)/75000));
 2000578:	00808074 	movhi	r2,513
 200057c:	10ad9d04 	addi	r2,r2,-18828
 2000580:	10800317 	ldw	r2,12(r2)
 2000584:	11026664 	muli	r4,r2,2457
 2000588:	01400074 	movhi	r5,1
 200058c:	29493e04 	addi	r5,r5,9464
 2000590:	20051640 	call	2005164 <__udivsi3>
 2000594:	1009883a 	mov	r4,r2
 2000598:	2001e6c0 	call	2001e6c <vSetServoPWM>
				vSetThrottle(((sRCVR.ulChannel4*2457)/75000));
 200059c:	00808074 	movhi	r2,513
 20005a0:	10ad9d04 	addi	r2,r2,-18828
 20005a4:	10800317 	ldw	r2,12(r2)
 20005a8:	11026664 	muli	r4,r2,2457
 20005ac:	01400074 	movhi	r5,1
 20005b0:	29493e04 	addi	r5,r5,9464
 20005b4:	20051640 	call	2005164 <__udivsi3>
 20005b8:	1009883a 	mov	r4,r2
 20005bc:	2001f400 	call	2001f40 <vSetThrottle>
 20005c0:	00001506 	br	2000618 <main+0x588>
		}
		// else run Mike's Test mode control
		else //(sDATA.sBits.testOrNormal == TEST)
		{
			//set throttle neutral if distance limit reached
			if ((sDATA.ulDistance_Real - sDATA.ulDistance_Old) >= sDATA.ulDistanceLimit)
 20005c4:	00808074 	movhi	r2,513
 20005c8:	10ad8004 	addi	r2,r2,-18944
 20005cc:	10c00517 	ldw	r3,20(r2)
 20005d0:	00808074 	movhi	r2,513
 20005d4:	10ad8004 	addi	r2,r2,-18944
 20005d8:	10800617 	ldw	r2,24(r2)
 20005dc:	1887c83a 	sub	r3,r3,r2
 20005e0:	00808074 	movhi	r2,513
 20005e4:	10ad8004 	addi	r2,r2,-18944
 20005e8:	10800717 	ldw	r2,28(r2)
 20005ec:	18800a36 	bltu	r3,r2,2000618 <main+0x588>
			{
				//stop
				vSetThrottle(sDATA.ulThrottleNeutral);
 20005f0:	00808074 	movhi	r2,513
 20005f4:	10ad8004 	addi	r2,r2,-18944
 20005f8:	11000b17 	ldw	r4,44(r2)
 20005fc:	2001f400 	call	2001f40 <vSetThrottle>
				sDATA.ulDistance_Old = sDATA.ulDistance_Real; //reset distance delta
 2000600:	00808074 	movhi	r2,513
 2000604:	10ad8004 	addi	r2,r2,-18944
 2000608:	10c00517 	ldw	r3,20(r2)
 200060c:	00808074 	movhi	r2,513
 2000610:	10ad8004 	addi	r2,r2,-18944
 2000614:	10c00615 	stw	r3,24(r2)
			}
		}

//
//		// If entry from key board
		if ((IORD_ALTERA_AVALON_UART_STATUS(UART_BASE)&0x80)==0x80)
 2000618:	00810034 	movhi	r2,1024
 200061c:	10950a04 	addi	r2,r2,21544
 2000620:	10800037 	ldwio	r2,0(r2)
 2000624:	1080200c 	andi	r2,r2,128
 2000628:	1005003a 	cmpeq	r2,r2,zero
 200062c:	1000061e 	bne	r2,zero,2000648 <main+0x5b8>
		{
			// Then read the character and perform the action
			vProcessNewKey(IORD_ALTERA_AVALON_UART_RXDATA(UART_BASE));
 2000630:	00810034 	movhi	r2,1024
 2000634:	10950804 	addi	r2,r2,21536
 2000638:	10800037 	ldwio	r2,0(r2)
 200063c:	11003fcc 	andi	r4,r2,255
 2000640:	20016840 	call	2001684 <vProcessNewKey>
 2000644:	003eaa06 	br	20000f0 <main+0x60>
		}
		else if (sSUI.ubEnableDisplay)
 2000648:	00808074 	movhi	r2,513
 200064c:	10ad7704 	addi	r2,r2,-18980
 2000650:	10800003 	ldbu	r2,0(r2)
 2000654:	10803fcc 	andi	r2,r2,255
 2000658:	1005003a 	cmpeq	r2,r2,zero
 200065c:	103ea41e 	bne	r2,zero,20000f0 <main+0x60>
		{vPrintDynamicScreen1();}
 2000660:	20011600 	call	2001160 <vPrintDynamicScreen1>
		//printf("%d\n",pUART->sStatus.word);

//		int c = getchar();
//		//while(c = getchar());
//		printf("%c",c);
	}
 2000664:	003ea206 	br	20000f0 <main+0x60>

02000668 <vPutChar>:
/*!
 * @brief	Called from background to print one character
 * @param	[in] ubChar ASCII value of character to print
 */
void vPutChar(alt_u8 ubChar)
{
 2000668:	defffe04 	addi	sp,sp,-8
 200066c:	df000115 	stw	fp,4(sp)
 2000670:	df000104 	addi	fp,sp,4
 2000674:	e13fff05 	stb	r4,-4(fp)
	//pUART->sControl.word = 0;
	//printf("putchar");
  // wait for xmit ready
 // while(!pUART->sStatus.sBits.trdy);
	 // printf(pUART->sStatus.sBits.trdy);
	IOWR_ALTERA_AVALON_UART_CONTROL(UART_BASE,0x40); //tell control we want to transmit
 2000678:	00c10034 	movhi	r3,1024
 200067c:	18d50b04 	addi	r3,r3,21548
 2000680:	00801004 	movi	r2,64
 2000684:	18800035 	stwio	r2,0(r3)
while (!(IORD_ALTERA_AVALON_UART_STATUS(UART_BASE)&0x40)==0x40);//wait for transmit ready status
 2000688:	00810034 	movhi	r2,1024
 200068c:	10950a04 	addi	r2,r2,21544
 2000690:	10800037 	ldwio	r2,0(r2)
	IOWR_ALTERA_AVALON_UART_TXDATA(UART_BASE,ubChar);
 2000694:	e0ffff03 	ldbu	r3,-4(fp)
 2000698:	00810034 	movhi	r2,1024
 200069c:	10950904 	addi	r2,r2,21540
 20006a0:	10c00035 	stwio	r3,0(r2)
	IOWR_ALTERA_AVALON_UART_CONTROL(UART_BASE,0); //turn off transmit after finish transmitting
 20006a4:	00810034 	movhi	r2,1024
 20006a8:	10950b04 	addi	r2,r2,21548
 20006ac:	10000035 	stwio	zero,0(r2)

  //pUART->txdata = 96;

}
 20006b0:	e037883a 	mov	sp,fp
 20006b4:	df000017 	ldw	fp,0(sp)
 20006b8:	dec00104 	addi	sp,sp,4
 20006bc:	f800283a 	ret

020006c0 <vPrintNum>:
/*!
 * @brief	Print one decimal character
 * @param	[in] swValue Binary value of digit to print
 */
void vPrintNum(alt_16 swValue)
{
 20006c0:	defffd04 	addi	sp,sp,-12
 20006c4:	dfc00215 	stw	ra,8(sp)
 20006c8:	df000115 	stw	fp,4(sp)
 20006cc:	df000104 	addi	fp,sp,4
 20006d0:	e13fff0d 	sth	r4,-4(fp)
  vPutChar(swValue + '0');
 20006d4:	e0bfff0b 	ldhu	r2,-4(fp)
 20006d8:	10800c04 	addi	r2,r2,48
 20006dc:	11003fcc 	andi	r4,r2,255
 20006e0:	20006680 	call	2000668 <vPutChar>
}
 20006e4:	e037883a 	mov	sp,fp
 20006e8:	dfc00117 	ldw	ra,4(sp)
 20006ec:	df000017 	ldw	fp,0(sp)
 20006f0:	dec00204 	addi	sp,sp,8
 20006f4:	f800283a 	ret

020006f8 <vCursor>:
 * @brief	Print control characters to position the cursor
 * @param	 uwRow Row
 * @param 	 uwCol Column
 */
void vCursor(alt_u16 uwRow, alt_u16 uwCol)
{
 20006f8:	defffc04 	addi	sp,sp,-16
 20006fc:	dfc00315 	stw	ra,12(sp)
 2000700:	df000215 	stw	fp,8(sp)
 2000704:	df000204 	addi	fp,sp,8
 2000708:	e13ffe0d 	sth	r4,-8(fp)
 200070c:	e17fff0d 	sth	r5,-4(fp)
  vPutChar(27);		// ESC
 2000710:	010006c4 	movi	r4,27
 2000714:	20006680 	call	2000668 <vPutChar>
  vPutChar('[');
 2000718:	010016c4 	movi	r4,91
 200071c:	20006680 	call	2000668 <vPutChar>
  if (uwRow < 10)
 2000720:	e0bffe0b 	ldhu	r2,-8(fp)
 2000724:	108002a8 	cmpgeui	r2,r2,10
 2000728:	1000051e 	bne	r2,zero,2000740 <vCursor+0x48>
  {
	vPutChar(uwRow + '0');
 200072c:	e0bffe0b 	ldhu	r2,-8(fp)
 2000730:	10800c04 	addi	r2,r2,48
 2000734:	11003fcc 	andi	r4,r2,255
 2000738:	20006680 	call	2000668 <vPutChar>
 200073c:	00000c06 	br	2000770 <vCursor+0x78>
  }
  else
  {
	vPutChar(uwRow/10 + '0');
 2000740:	e13ffe0b 	ldhu	r4,-8(fp)
 2000744:	01400284 	movi	r5,10
 2000748:	20051640 	call	2005164 <__udivsi3>
 200074c:	10800c04 	addi	r2,r2,48
 2000750:	11003fcc 	andi	r4,r2,255
 2000754:	20006680 	call	2000668 <vPutChar>
	vPutChar(uwRow%10 + '0');
 2000758:	e13ffe0b 	ldhu	r4,-8(fp)
 200075c:	01400284 	movi	r5,10
 2000760:	200516c0 	call	200516c <__umodsi3>
 2000764:	10800c04 	addi	r2,r2,48
 2000768:	11003fcc 	andi	r4,r2,255
 200076c:	20006680 	call	2000668 <vPutChar>
  }
  vPutChar(';');
 2000770:	01000ec4 	movi	r4,59
 2000774:	20006680 	call	2000668 <vPutChar>
  if (uwCol < 10)
 2000778:	e0bfff0b 	ldhu	r2,-4(fp)
 200077c:	108002a8 	cmpgeui	r2,r2,10
 2000780:	1000051e 	bne	r2,zero,2000798 <vCursor+0xa0>
  {
	vPutChar(uwCol + '0');
 2000784:	e0bfff0b 	ldhu	r2,-4(fp)
 2000788:	10800c04 	addi	r2,r2,48
 200078c:	11003fcc 	andi	r4,r2,255
 2000790:	20006680 	call	2000668 <vPutChar>
 2000794:	00000c06 	br	20007c8 <vCursor+0xd0>
  }
  else
  {
    vPutChar(uwCol/10 + '0');
 2000798:	e13fff0b 	ldhu	r4,-4(fp)
 200079c:	01400284 	movi	r5,10
 20007a0:	20051640 	call	2005164 <__udivsi3>
 20007a4:	10800c04 	addi	r2,r2,48
 20007a8:	11003fcc 	andi	r4,r2,255
 20007ac:	20006680 	call	2000668 <vPutChar>
    vPutChar(uwCol%10 + '0');
 20007b0:	e13fff0b 	ldhu	r4,-4(fp)
 20007b4:	01400284 	movi	r5,10
 20007b8:	200516c0 	call	200516c <__umodsi3>
 20007bc:	10800c04 	addi	r2,r2,48
 20007c0:	11003fcc 	andi	r4,r2,255
 20007c4:	20006680 	call	2000668 <vPutChar>
  }
  vPutChar('H');
 20007c8:	01001204 	movi	r4,72
 20007cc:	20006680 	call	2000668 <vPutChar>
  vPutChar(0);
 20007d0:	0009883a 	mov	r4,zero
 20007d4:	20006680 	call	2000668 <vPutChar>
  vPutChar(0);
 20007d8:	0009883a 	mov	r4,zero
 20007dc:	20006680 	call	2000668 <vPutChar>
  vPutChar(0);
 20007e0:	0009883a 	mov	r4,zero
 20007e4:	20006680 	call	2000668 <vPutChar>
}
 20007e8:	e037883a 	mov	sp,fp
 20007ec:	dfc00117 	ldw	ra,4(sp)
 20007f0:	df000017 	ldw	fp,0(sp)
 20007f4:	dec00204 	addi	sp,sp,8
 20007f8:	f800283a 	ret

020007fc <vPrintTxt>:
 * @param 	[in] uwCol Column
 * @param 	[in] swLength Byte length
 * @param 	[in out] pText Pointer to string
 */
void vPrintTxt(alt_u16 uwRow, alt_u16 uwCol, alt_16 swLength, char *pText)
{
 20007fc:	defff904 	addi	sp,sp,-28
 2000800:	dfc00615 	stw	ra,24(sp)
 2000804:	df000515 	stw	fp,20(sp)
 2000808:	df000504 	addi	fp,sp,20
 200080c:	e1ffff15 	stw	r7,-4(fp)
 2000810:	e13ffc0d 	sth	r4,-16(fp)
 2000814:	e17ffd0d 	sth	r5,-12(fp)
 2000818:	e1bffe0d 	sth	r6,-8(fp)
  alt_u16 i;			// for loop index

  vCursor(uwRow, uwCol);		// Position the cursor for printing
 200081c:	e13ffc0b 	ldhu	r4,-16(fp)
 2000820:	e17ffd0b 	ldhu	r5,-12(fp)
 2000824:	20006f80 	call	20006f8 <vCursor>

  for (i=0; i<swLength; i++)
 2000828:	e03ffb0d 	sth	zero,-20(fp)
 200082c:	00000a06 	br	2000858 <vPrintTxt+0x5c>
  {
    vPutChar(*pText++);
 2000830:	e0bfff17 	ldw	r2,-4(fp)
 2000834:	10800003 	ldbu	r2,0(r2)
 2000838:	11003fcc 	andi	r4,r2,255
 200083c:	e0bfff17 	ldw	r2,-4(fp)
 2000840:	10800044 	addi	r2,r2,1
 2000844:	e0bfff15 	stw	r2,-4(fp)
 2000848:	20006680 	call	2000668 <vPutChar>
{
  alt_u16 i;			// for loop index

  vCursor(uwRow, uwCol);		// Position the cursor for printing

  for (i=0; i<swLength; i++)
 200084c:	e0bffb0b 	ldhu	r2,-20(fp)
 2000850:	10800044 	addi	r2,r2,1
 2000854:	e0bffb0d 	sth	r2,-20(fp)
 2000858:	e0fffb0b 	ldhu	r3,-20(fp)
 200085c:	e0bffe0f 	ldh	r2,-8(fp)
 2000860:	18bff316 	blt	r3,r2,2000830 <vPrintTxt+0x34>
  {
    vPutChar(*pText++);
  }
}
 2000864:	e037883a 	mov	sp,fp
 2000868:	dfc00117 	ldw	ra,4(sp)
 200086c:	df000017 	ldw	fp,0(sp)
 2000870:	dec00204 	addi	sp,sp,8
 2000874:	f800283a 	ret

02000878 <vPrintNlz>:
 * @param 	[in] swSelect desired formatting
 * @param 	[in] slValue Value
 *
 */
void vPrintNlz(alt_u16 uwRow, alt_u16 uwCol, alt_16 swSel, alt_32 slVal)
{
 2000878:	defff504 	addi	sp,sp,-44
 200087c:	dfc00a15 	stw	ra,40(sp)
 2000880:	df000915 	stw	fp,36(sp)
 2000884:	df000904 	addi	fp,sp,36
 2000888:	e1fffe15 	stw	r7,-8(fp)
 200088c:	e13ffb0d 	sth	r4,-20(fp)
 2000890:	e17ffc0d 	sth	r5,-16(fp)
 2000894:	e1bffd0d 	sth	r6,-12(fp)
  alt_u16 nz;			// Flag to suppress leading zeros
  alt_32 slDig;		// Value to select digit to extract
  alt_32 slNum;		// Value of digit to print


  nz = 0;						// Init flag that suppresses leading zeros
 2000898:	e03ff90d 	sth	zero,-28(fp)

  switch(swSel)					// Select the desired formatting
 200089c:	e0bffd0f 	ldh	r2,-12(fp)
 20008a0:	e0bfff15 	stw	r2,-4(fp)
 20008a4:	e0ffff17 	ldw	r3,-4(fp)
 20008a8:	18800120 	cmpeqi	r2,r3,4
 20008ac:	1000041e 	bne	r2,zero,20008c0 <vPrintNlz+0x48>
 20008b0:	e0ffff17 	ldw	r3,-4(fp)
 20008b4:	18800160 	cmpeqi	r2,r3,5
 20008b8:	1000101e 	bne	r2,zero,20008fc <vPrintNlz+0x84>
 20008bc:	00001f06 	br	200093c <vPrintNlz+0xc4>
  {
    case 4:						// Format as XXXX
    {
      if (slVal > 9999)				// Test for value too big
 20008c0:	e0bffe17 	ldw	r2,-8(fp)
 20008c4:	1089c410 	cmplti	r2,r2,10000
 20008c8:	1000071e 	bne	r2,zero,20008e8 <vPrintNlz+0x70>
      {
        vPrintTxt(uwRow, uwCol, 4,"****");
 20008cc:	e13ffb0b 	ldhu	r4,-20(fp)
 20008d0:	e17ffc0b 	ldhu	r5,-16(fp)
 20008d4:	01800104 	movi	r6,4
 20008d8:	01c08074 	movhi	r7,513
 20008dc:	39e59404 	addi	r7,r7,-27056
 20008e0:	20007fc0 	call	20007fc <vPrintTxt>
        return;
 20008e4:	00004806 	br	2000a08 <vPrintNlz+0x190>
      }
	  left = 4;
 20008e8:	00800104 	movi	r2,4
 20008ec:	e0bff98d 	sth	r2,-26(fp)
      slDig = 1000;
 20008f0:	0080fa04 	movi	r2,1000
 20008f4:	e0bff815 	stw	r2,-32(fp)
    }
    break;
 20008f8:	00001606 	br	2000954 <vPrintNlz+0xdc>

    case 5:						// Format as XXXXX
    {
      if (slVal > 99999)		// Test for value too big
 20008fc:	e0fffe17 	ldw	r3,-8(fp)
 2000900:	008000b4 	movhi	r2,2
 2000904:	10a1a7c4 	addi	r2,r2,-31073
 2000908:	10c0070e 	bge	r2,r3,2000928 <vPrintNlz+0xb0>
      {
        vPrintTxt(uwRow, uwCol, 5,"*****");
 200090c:	e13ffb0b 	ldhu	r4,-20(fp)
 2000910:	e17ffc0b 	ldhu	r5,-16(fp)
 2000914:	01800144 	movi	r6,5
 2000918:	01c08074 	movhi	r7,513
 200091c:	39e59604 	addi	r7,r7,-27048
 2000920:	20007fc0 	call	20007fc <vPrintTxt>
        return;
 2000924:	00003806 	br	2000a08 <vPrintNlz+0x190>
      }
	  left = 5;
 2000928:	00800144 	movi	r2,5
 200092c:	e0bff98d 	sth	r2,-26(fp)
      slDig = 10000;
 2000930:	0089c404 	movi	r2,10000
 2000934:	e0bff815 	stw	r2,-32(fp)
    }
    break;
 2000938:	00000606 	br	2000954 <vPrintNlz+0xdc>

    default:					// Unsupported format
    {
      vCursor(uwRow, uwCol);	// Position the cursor for printing
 200093c:	e13ffb0b 	ldhu	r4,-20(fp)
 2000940:	e17ffc0b 	ldhu	r5,-16(fp)
 2000944:	20006f80 	call	20006f8 <vCursor>
      vPutChar('?');
 2000948:	01000fc4 	movi	r4,63
 200094c:	20006680 	call	2000668 <vPutChar>
      return;
 2000950:	00002d06 	br	2000a08 <vPrintNlz+0x190>
    }
  }

  // Common to all Nlz format
  vCursor(uwRow, uwCol);		// Position the cursor for printing
 2000954:	e13ffb0b 	ldhu	r4,-20(fp)
 2000958:	e17ffc0b 	ldhu	r5,-16(fp)
 200095c:	20006f80 	call	20006f8 <vCursor>

  for (i=0; i<left; i++)		// Start with most significant decimal digit
 2000960:	e03ffa0d 	sth	zero,-24(fp)
 2000964:	00002506 	br	20009fc <vPrintNlz+0x184>
  {
    slNum = slVal / slDig;
 2000968:	e13ffe17 	ldw	r4,-8(fp)
 200096c:	e17ff817 	ldw	r5,-32(fp)
 2000970:	20050a40 	call	20050a4 <__divsi3>
 2000974:	e0bff715 	stw	r2,-36(fp)
    slVal = slVal - slNum * slDig;
 2000978:	e0fff717 	ldw	r3,-36(fp)
 200097c:	e0bff817 	ldw	r2,-32(fp)
 2000980:	1887383a 	mul	r3,r3,r2
 2000984:	e0bffe17 	ldw	r2,-8(fp)
 2000988:	10c5c83a 	sub	r2,r2,r3
 200098c:	e0bffe15 	stw	r2,-8(fp)

    if (slNum > 0)
 2000990:	e0bff717 	ldw	r2,-36(fp)
 2000994:	10800050 	cmplti	r2,r2,1
 2000998:	1000021e 	bne	r2,zero,20009a4 <vPrintNlz+0x12c>
  	  nz = 1;					// nonzero found
 200099c:	00800044 	movi	r2,1
 20009a0:	e0bff90d 	sth	r2,-28(fp)

    if (nz || (i == (left-1) ))
 20009a4:	e0bff90b 	ldhu	r2,-28(fp)
 20009a8:	1004c03a 	cmpne	r2,r2,zero
 20009ac:	1000041e 	bne	r2,zero,20009c0 <vPrintNlz+0x148>
 20009b0:	e0bffa0b 	ldhu	r2,-24(fp)
 20009b4:	e0fff98b 	ldhu	r3,-26(fp)
 20009b8:	18ffffc4 	addi	r3,r3,-1
 20009bc:	10c0061e 	bne	r2,r3,20009d8 <vPrintNlz+0x160>
      vPrintNum(slNum); 		// print one digit
 20009c0:	e0bff717 	ldw	r2,-36(fp)
 20009c4:	113fffcc 	andi	r4,r2,65535
 20009c8:	2120001c 	xori	r4,r4,32768
 20009cc:	21200004 	addi	r4,r4,-32768
 20009d0:	20006c00 	call	20006c0 <vPrintNum>
    slVal = slVal - slNum * slDig;

    if (slNum > 0)
  	  nz = 1;					// nonzero found

    if (nz || (i == (left-1) ))
 20009d4:	00000206 	br	20009e0 <vPrintNlz+0x168>
      vPrintNum(slNum); 		// print one digit
    else
      vPutChar(' ');			// print leading space
 20009d8:	01000804 	movi	r4,32
 20009dc:	20006680 	call	2000668 <vPutChar>

    slDig = slDig / 10;			// select the next digit
 20009e0:	e13ff817 	ldw	r4,-32(fp)
 20009e4:	01400284 	movi	r5,10
 20009e8:	20050a40 	call	20050a4 <__divsi3>
 20009ec:	e0bff815 	stw	r2,-32(fp)
  }

  // Common to all Nlz format
  vCursor(uwRow, uwCol);		// Position the cursor for printing

  for (i=0; i<left; i++)		// Start with most significant decimal digit
 20009f0:	e0bffa0b 	ldhu	r2,-24(fp)
 20009f4:	10800044 	addi	r2,r2,1
 20009f8:	e0bffa0d 	sth	r2,-24(fp)
 20009fc:	e0fffa0b 	ldhu	r3,-24(fp)
 2000a00:	e0bff98b 	ldhu	r2,-26(fp)
 2000a04:	18bfd836 	bltu	r3,r2,2000968 <vPrintNlz+0xf0>
    else
      vPutChar(' ');			// print leading space

    slDig = slDig / 10;			// select the next digit
  }
}
 2000a08:	e037883a 	mov	sp,fp
 2000a0c:	dfc00117 	ldw	ra,4(sp)
 2000a10:	df000017 	ldw	fp,0(sp)
 2000a14:	dec00204 	addi	sp,sp,8
 2000a18:	f800283a 	ret

02000a1c <vPrintFix>:
 * @param 	[in] swSelect Decimal Point Position
 * @param 	[in] slValue Value
 * @note	For example: Decimal Point Position of 63 is XXXXXX.XXX
 */
void vPrintFix(alt_u16 uwRow, alt_u16 uwCol, alt_16 swSel, alt_32 slVal)
{
 2000a1c:	defff504 	addi	sp,sp,-44
 2000a20:	dfc00a15 	stw	ra,40(sp)
 2000a24:	df000915 	stw	fp,36(sp)
 2000a28:	df000904 	addi	fp,sp,36
 2000a2c:	e1fffe15 	stw	r7,-8(fp)
 2000a30:	e13ffb0d 	sth	r4,-20(fp)
 2000a34:	e17ffc0d 	sth	r5,-16(fp)
 2000a38:	e1bffd0d 	sth	r6,-12(fp)
	alt_u16 nz;			// Flag to suppress leading zeros
	alt_32 slDig;		// Value to select digit to extract
	alt_32 slNum;		// Value of digit to print


  nz = 0;						// Init flag that suppresses leading zeros
 2000a3c:	e03ff90d 	sth	zero,-28(fp)

  switch(swSel)					// Select the desired formatting
 2000a40:	e0bffd0f 	ldh	r2,-12(fp)
 2000a44:	e0bfff15 	stw	r2,-4(fp)
 2000a48:	e0ffff17 	ldw	r3,-4(fp)
 2000a4c:	188005a0 	cmpeqi	r2,r3,22
 2000a50:	10003d1e 	bne	r2,zero,2000b48 <vPrintFix+0x12c>
 2000a54:	e0ffff17 	ldw	r3,-4(fp)
 2000a58:	188005c8 	cmpgei	r2,r3,23
 2000a5c:	10000a1e 	bne	r2,zero,2000a88 <vPrintFix+0x6c>
 2000a60:	e0ffff17 	ldw	r3,-4(fp)
 2000a64:	18800360 	cmpeqi	r2,r3,13
 2000a68:	1000111e 	bne	r2,zero,2000ab0 <vPrintFix+0x94>
 2000a6c:	e0ffff17 	ldw	r3,-4(fp)
 2000a70:	18800560 	cmpeqi	r2,r3,21
 2000a74:	1000231e 	bne	r2,zero,2000b04 <vPrintFix+0xe8>
 2000a78:	e0ffff17 	ldw	r3,-4(fp)
 2000a7c:	18bff860 	cmpeqi	r2,r3,-31
 2000a80:	1000531e 	bne	r2,zero,2000bd0 <vPrintFix+0x1b4>
 2000a84:	0000ac06 	br	2000d38 <vPrintFix+0x31c>
 2000a88:	e0ffff17 	ldw	r3,-4(fp)
 2000a8c:	18800f60 	cmpeqi	r2,r3,61
 2000a90:	1000771e 	bne	r2,zero,2000c70 <vPrintFix+0x254>
 2000a94:	e0ffff17 	ldw	r3,-4(fp)
 2000a98:	18800fe0 	cmpeqi	r2,r3,63
 2000a9c:	10008d1e 	bne	r2,zero,2000cd4 <vPrintFix+0x2b8>
 2000aa0:	e0ffff17 	ldw	r3,-4(fp)
 2000aa4:	188007e0 	cmpeqi	r2,r3,31
 2000aa8:	1000381e 	bne	r2,zero,2000b8c <vPrintFix+0x170>
 2000aac:	0000a206 	br	2000d38 <vPrintFix+0x31c>
  {
  	  case 13:					// Format as X.XXX
  	  {
  		  if (slVal < 0)		// don't allow negative
 2000ab0:	e0bffe17 	ldw	r2,-8(fp)
 2000ab4:	1004403a 	cmpge	r2,r2,zero
 2000ab8:	1000011e 	bne	r2,zero,2000ac0 <vPrintFix+0xa4>
  		  {
  			  slVal = 0;
 2000abc:	e03ffe15 	stw	zero,-8(fp)
  		  }

  		  if (slVal > 9999)		// Test for value too big
 2000ac0:	e0bffe17 	ldw	r2,-8(fp)
 2000ac4:	1089c410 	cmplti	r2,r2,10000
 2000ac8:	1000071e 	bne	r2,zero,2000ae8 <vPrintFix+0xcc>
  		  {
  			  vPrintTxt(uwRow, uwCol, 5,"*.***");
 2000acc:	e13ffb0b 	ldhu	r4,-20(fp)
 2000ad0:	e17ffc0b 	ldhu	r5,-16(fp)
 2000ad4:	01800144 	movi	r6,5
 2000ad8:	01c08074 	movhi	r7,513
 2000adc:	39e59804 	addi	r7,r7,-27040
 2000ae0:	20007fc0 	call	20007fc <vPrintTxt>
  			  return;
 2000ae4:	0000ea06 	br	2000e90 <vPrintFix+0x474>
  		  }
  		  left = 1;
 2000ae8:	00800044 	movi	r2,1
 2000aec:	e0bffa0d 	sth	r2,-24(fp)
  		  right = 3;
 2000af0:	008000c4 	movi	r2,3
 2000af4:	e0bff98d 	sth	r2,-26(fp)
  		  slDig = 1000;
 2000af8:	0080fa04 	movi	r2,1000
 2000afc:	e0bff815 	stw	r2,-32(fp)
  	  }
  	  break;
 2000b00:	00009306 	br	2000d50 <vPrintFix+0x334>



    case 21:					// Format as XX.X
    {
      if (slVal > 999)			// Test for value too big
 2000b04:	e0bffe17 	ldw	r2,-8(fp)
 2000b08:	1080fa10 	cmplti	r2,r2,1000
 2000b0c:	1000071e 	bne	r2,zero,2000b2c <vPrintFix+0x110>
      {
        vPrintTxt(uwRow, uwCol, 4, "**.*");
 2000b10:	e13ffb0b 	ldhu	r4,-20(fp)
 2000b14:	e17ffc0b 	ldhu	r5,-16(fp)
 2000b18:	01800104 	movi	r6,4
 2000b1c:	01c08074 	movhi	r7,513
 2000b20:	39e59a04 	addi	r7,r7,-27032
 2000b24:	20007fc0 	call	20007fc <vPrintTxt>
        return;
 2000b28:	0000d906 	br	2000e90 <vPrintFix+0x474>
      }
	  left = 2;
 2000b2c:	00800084 	movi	r2,2
 2000b30:	e0bffa0d 	sth	r2,-24(fp)
	  right = 1;
 2000b34:	00800044 	movi	r2,1
 2000b38:	e0bff98d 	sth	r2,-26(fp)
      slDig = 100;
 2000b3c:	00801904 	movi	r2,100
 2000b40:	e0bff815 	stw	r2,-32(fp)
    }
    break;
 2000b44:	00008206 	br	2000d50 <vPrintFix+0x334>

    case 22:					// Format as XX.XX
    {
      if (slVal > 9999)		// Test for value too big
 2000b48:	e0bffe17 	ldw	r2,-8(fp)
 2000b4c:	1089c410 	cmplti	r2,r2,10000
 2000b50:	1000071e 	bne	r2,zero,2000b70 <vPrintFix+0x154>
      {
        vPrintTxt(uwRow, uwCol, 5, "**.**");
 2000b54:	e13ffb0b 	ldhu	r4,-20(fp)
 2000b58:	e17ffc0b 	ldhu	r5,-16(fp)
 2000b5c:	01800144 	movi	r6,5
 2000b60:	01c08074 	movhi	r7,513
 2000b64:	39e59c04 	addi	r7,r7,-27024
 2000b68:	20007fc0 	call	20007fc <vPrintTxt>
        return;
 2000b6c:	0000c806 	br	2000e90 <vPrintFix+0x474>
      }
	  left = 2;
 2000b70:	00800084 	movi	r2,2
 2000b74:	e0bffa0d 	sth	r2,-24(fp)
	  right = 2;
 2000b78:	00800084 	movi	r2,2
 2000b7c:	e0bff98d 	sth	r2,-26(fp)
      slDig = 1000;
 2000b80:	0080fa04 	movi	r2,1000
 2000b84:	e0bff815 	stw	r2,-32(fp)
    }
    break;
 2000b88:	00007106 	br	2000d50 <vPrintFix+0x334>

    case 31:					// Format as XXX.X
    {
      if (slVal > 9999)			// Test for value too big
 2000b8c:	e0bffe17 	ldw	r2,-8(fp)
 2000b90:	1089c410 	cmplti	r2,r2,10000
 2000b94:	1000071e 	bne	r2,zero,2000bb4 <vPrintFix+0x198>
      {
        vPrintTxt(uwRow, uwCol, 5,"***.*");
 2000b98:	e13ffb0b 	ldhu	r4,-20(fp)
 2000b9c:	e17ffc0b 	ldhu	r5,-16(fp)
 2000ba0:	01800144 	movi	r6,5
 2000ba4:	01c08074 	movhi	r7,513
 2000ba8:	39e59e04 	addi	r7,r7,-27016
 2000bac:	20007fc0 	call	20007fc <vPrintTxt>
        return;
 2000bb0:	0000b706 	br	2000e90 <vPrintFix+0x474>
      }
	  left = 3;
 2000bb4:	008000c4 	movi	r2,3
 2000bb8:	e0bffa0d 	sth	r2,-24(fp)
	  right = 1;
 2000bbc:	00800044 	movi	r2,1
 2000bc0:	e0bff98d 	sth	r2,-26(fp)
      slDig = 1000;
 2000bc4:	0080fa04 	movi	r2,1000
 2000bc8:	e0bff815 	stw	r2,-32(fp)
    }
    break;
 2000bcc:	00006006 	br	2000d50 <vPrintFix+0x334>

    case -31:					// Format as +XXX.X
    {
      vCursor(uwRow, uwCol-1);
 2000bd0:	e13ffb0b 	ldhu	r4,-20(fp)
 2000bd4:	e0bffc0b 	ldhu	r2,-16(fp)
 2000bd8:	10bfffc4 	addi	r2,r2,-1
 2000bdc:	117fffcc 	andi	r5,r2,65535
 2000be0:	20006f80 	call	20006f8 <vCursor>

      if (slVal > 9999)			// Test for value too big
 2000be4:	e0bffe17 	ldw	r2,-8(fp)
 2000be8:	1089c410 	cmplti	r2,r2,10000
 2000bec:	1000071e 	bne	r2,zero,2000c0c <vPrintFix+0x1f0>
      {
        vPrintTxt(uwRow, uwCol, 6,"+***.*");
 2000bf0:	e13ffb0b 	ldhu	r4,-20(fp)
 2000bf4:	e17ffc0b 	ldhu	r5,-16(fp)
 2000bf8:	01800184 	movi	r6,6
 2000bfc:	01c08074 	movhi	r7,513
 2000c00:	39e5a004 	addi	r7,r7,-27008
 2000c04:	20007fc0 	call	20007fc <vPrintTxt>
        return;
 2000c08:	0000a106 	br	2000e90 <vPrintFix+0x474>
      }
      if (slVal <= 2047)
 2000c0c:	e0bffe17 	ldw	r2,-8(fp)
 2000c10:	10820008 	cmpgei	r2,r2,2048
 2000c14:	1000031e 	bne	r2,zero,2000c24 <vPrintFix+0x208>
      {
    	vPutChar('+');
 2000c18:	01000ac4 	movi	r4,43
 2000c1c:	20006680 	call	2000668 <vPutChar>
 2000c20:	00000c06 	br	2000c54 <vPrintFix+0x238>
      }
      else if (slVal <= 4095)
 2000c24:	e0bffe17 	ldw	r2,-8(fp)
 2000c28:	10840008 	cmpgei	r2,r2,4096
 2000c2c:	1000071e 	bne	r2,zero,2000c4c <vPrintFix+0x230>
      {
    	vPutChar('-');
 2000c30:	01000b44 	movi	r4,45
 2000c34:	20006680 	call	2000668 <vPutChar>
    	slVal = -(slVal - 4096);
 2000c38:	00840004 	movi	r2,4096
 2000c3c:	e0fffe17 	ldw	r3,-8(fp)
 2000c40:	10c5c83a 	sub	r2,r2,r3
 2000c44:	e0bffe15 	stw	r2,-8(fp)
 2000c48:	00000206 	br	2000c54 <vPrintFix+0x238>
      }
      else
      {
      	vPutChar(' ');
 2000c4c:	01000804 	movi	r4,32
 2000c50:	20006680 	call	2000668 <vPutChar>
      }
	  left = 3;
 2000c54:	008000c4 	movi	r2,3
 2000c58:	e0bffa0d 	sth	r2,-24(fp)
	  right = 1;
 2000c5c:	00800044 	movi	r2,1
 2000c60:	e0bff98d 	sth	r2,-26(fp)
      slDig = 1000;
 2000c64:	0080fa04 	movi	r2,1000
 2000c68:	e0bff815 	stw	r2,-32(fp)
    }
    break;
 2000c6c:	00003806 	br	2000d50 <vPrintFix+0x334>


    case 61:					// Format as XXXXX.X
    {
      if (slVal < 0)
 2000c70:	e0bffe17 	ldw	r2,-8(fp)
 2000c74:	1004403a 	cmpge	r2,r2,zero
 2000c78:	1000031e 	bne	r2,zero,2000c88 <vPrintFix+0x26c>
      {
    	  slVal = -slVal;
 2000c7c:	e0bffe17 	ldw	r2,-8(fp)
 2000c80:	0085c83a 	sub	r2,zero,r2
 2000c84:	e0bffe15 	stw	r2,-8(fp)
      }
      if (slVal > 9999999)			// Test for value too big
 2000c88:	e0fffe17 	ldw	r3,-8(fp)
 2000c8c:	00802674 	movhi	r2,153
 2000c90:	10a59fc4 	addi	r2,r2,-27009
 2000c94:	10c0070e 	bge	r2,r3,2000cb4 <vPrintFix+0x298>
      {
        vPrintTxt(uwRow, uwCol, 8,"******.*");
 2000c98:	e13ffb0b 	ldhu	r4,-20(fp)
 2000c9c:	e17ffc0b 	ldhu	r5,-16(fp)
 2000ca0:	01800204 	movi	r6,8
 2000ca4:	01c08074 	movhi	r7,513
 2000ca8:	39e5a204 	addi	r7,r7,-27000
 2000cac:	20007fc0 	call	20007fc <vPrintTxt>
        return;
 2000cb0:	00007706 	br	2000e90 <vPrintFix+0x474>
      }
	  left = 6;
 2000cb4:	00800184 	movi	r2,6
 2000cb8:	e0bffa0d 	sth	r2,-24(fp)
	  right = 1;
 2000cbc:	00800044 	movi	r2,1
 2000cc0:	e0bff98d 	sth	r2,-26(fp)
      slDig = 1000000;
 2000cc4:	008003f4 	movhi	r2,15
 2000cc8:	10909004 	addi	r2,r2,16960
 2000ccc:	e0bff815 	stw	r2,-32(fp)
    }
    break;
 2000cd0:	00001f06 	br	2000d50 <vPrintFix+0x334>

    case 63:					// Format as XXXXXX.XXX
    {
      if (slVal < 0)
 2000cd4:	e0bffe17 	ldw	r2,-8(fp)
 2000cd8:	1004403a 	cmpge	r2,r2,zero
 2000cdc:	1000031e 	bne	r2,zero,2000cec <vPrintFix+0x2d0>
      {
      	slVal = -slVal;
 2000ce0:	e0bffe17 	ldw	r2,-8(fp)
 2000ce4:	0085c83a 	sub	r2,zero,r2
 2000ce8:	e0bffe15 	stw	r2,-8(fp)
      }

      if (slVal > 999999999)	// Test for value too big
 2000cec:	e0fffe17 	ldw	r3,-8(fp)
 2000cf0:	008ee6f4 	movhi	r2,15259
 2000cf4:	10b27fc4 	addi	r2,r2,-13825
 2000cf8:	10c0070e 	bge	r2,r3,2000d18 <vPrintFix+0x2fc>
      {
        vPrintTxt(uwRow, uwCol, 10, "******.***");
 2000cfc:	e13ffb0b 	ldhu	r4,-20(fp)
 2000d00:	e17ffc0b 	ldhu	r5,-16(fp)
 2000d04:	01800284 	movi	r6,10
 2000d08:	01c08074 	movhi	r7,513
 2000d0c:	39e5a504 	addi	r7,r7,-26988
 2000d10:	20007fc0 	call	20007fc <vPrintTxt>
        return;
 2000d14:	00005e06 	br	2000e90 <vPrintFix+0x474>
      }
	  left = 6;
 2000d18:	00800184 	movi	r2,6
 2000d1c:	e0bffa0d 	sth	r2,-24(fp)
	  right = 3;
 2000d20:	008000c4 	movi	r2,3
 2000d24:	e0bff98d 	sth	r2,-26(fp)
      slDig = 100000000;
 2000d28:	00817db4 	movhi	r2,1526
 2000d2c:	10b84004 	addi	r2,r2,-7936
 2000d30:	e0bff815 	stw	r2,-32(fp)
    }
    break;
 2000d34:	00000606 	br	2000d50 <vPrintFix+0x334>

    default:
	{							// Unsupported format
      vCursor(uwRow, uwCol);	// Position the cursor for printing
 2000d38:	e13ffb0b 	ldhu	r4,-20(fp)
 2000d3c:	e17ffc0b 	ldhu	r5,-16(fp)
 2000d40:	20006f80 	call	20006f8 <vCursor>
      vPutChar('?');
 2000d44:	01000fc4 	movi	r4,63
 2000d48:	20006680 	call	2000668 <vPutChar>
      return;
 2000d4c:	00005006 	br	2000e90 <vPrintFix+0x474>
    }
  }

  vCursor(uwRow, uwCol);		// Position the cursor for printing
 2000d50:	e13ffb0b 	ldhu	r4,-20(fp)
 2000d54:	e17ffc0b 	ldhu	r5,-16(fp)
 2000d58:	20006f80 	call	20006f8 <vCursor>

  for (i=0; i<left; i++)		// Start with most significant decimal digit
 2000d5c:	e03ffa8d 	sth	zero,-22(fp)
 2000d60:	00002506 	br	2000df8 <vPrintFix+0x3dc>
  {
    slNum = slVal / slDig;
 2000d64:	e13ffe17 	ldw	r4,-8(fp)
 2000d68:	e17ff817 	ldw	r5,-32(fp)
 2000d6c:	20050a40 	call	20050a4 <__divsi3>
 2000d70:	e0bff715 	stw	r2,-36(fp)
    slVal = slVal - slNum * slDig;
 2000d74:	e0fff717 	ldw	r3,-36(fp)
 2000d78:	e0bff817 	ldw	r2,-32(fp)
 2000d7c:	1887383a 	mul	r3,r3,r2
 2000d80:	e0bffe17 	ldw	r2,-8(fp)
 2000d84:	10c5c83a 	sub	r2,r2,r3
 2000d88:	e0bffe15 	stw	r2,-8(fp)

	if (slNum > 0)
 2000d8c:	e0bff717 	ldw	r2,-36(fp)
 2000d90:	10800050 	cmplti	r2,r2,1
 2000d94:	1000021e 	bne	r2,zero,2000da0 <vPrintFix+0x384>
	  nz = 1;					// nonzero found
 2000d98:	00800044 	movi	r2,1
 2000d9c:	e0bff90d 	sth	r2,-28(fp)

	if (nz || (i == (left-1) ))
 2000da0:	e0bff90b 	ldhu	r2,-28(fp)
 2000da4:	1004c03a 	cmpne	r2,r2,zero
 2000da8:	1000041e 	bne	r2,zero,2000dbc <vPrintFix+0x3a0>
 2000dac:	e0bffa8b 	ldhu	r2,-22(fp)
 2000db0:	e0fffa0b 	ldhu	r3,-24(fp)
 2000db4:	18ffffc4 	addi	r3,r3,-1
 2000db8:	10c0061e 	bne	r2,r3,2000dd4 <vPrintFix+0x3b8>
      vPrintNum(slNum); 		// print one digit
 2000dbc:	e0bff717 	ldw	r2,-36(fp)
 2000dc0:	113fffcc 	andi	r4,r2,65535
 2000dc4:	2120001c 	xori	r4,r4,32768
 2000dc8:	21200004 	addi	r4,r4,-32768
 2000dcc:	20006c00 	call	20006c0 <vPrintNum>
    slVal = slVal - slNum * slDig;

	if (slNum > 0)
	  nz = 1;					// nonzero found

	if (nz || (i == (left-1) ))
 2000dd0:	00000206 	br	2000ddc <vPrintFix+0x3c0>
      vPrintNum(slNum); 		// print one digit
    else
      vPutChar(' ');			// print leading space
 2000dd4:	01000804 	movi	r4,32
 2000dd8:	20006680 	call	2000668 <vPutChar>

    slDig = slDig / 10;			// select the next digit
 2000ddc:	e13ff817 	ldw	r4,-32(fp)
 2000de0:	01400284 	movi	r5,10
 2000de4:	20050a40 	call	20050a4 <__divsi3>
 2000de8:	e0bff815 	stw	r2,-32(fp)
    }
  }

  vCursor(uwRow, uwCol);		// Position the cursor for printing

  for (i=0; i<left; i++)		// Start with most significant decimal digit
 2000dec:	e0bffa8b 	ldhu	r2,-22(fp)
 2000df0:	10800044 	addi	r2,r2,1
 2000df4:	e0bffa8d 	sth	r2,-22(fp)
 2000df8:	e0fffa8b 	ldhu	r3,-22(fp)
 2000dfc:	e0bffa0b 	ldhu	r2,-24(fp)
 2000e00:	18bfd836 	bltu	r3,r2,2000d64 <vPrintFix+0x348>
      vPutChar(' ');			// print leading space

    slDig = slDig / 10;			// select the next digit
  }

  vPutChar('.');	    		// print the decimal point
 2000e04:	01000b84 	movi	r4,46
 2000e08:	20006680 	call	2000668 <vPutChar>

  for (i=0; i<(right-1); i++)
 2000e0c:	e03ffa8d 	sth	zero,-22(fp)
 2000e10:	00001606 	br	2000e6c <vPrintFix+0x450>
  {
    slNum = slVal / slDig;
 2000e14:	e13ffe17 	ldw	r4,-8(fp)
 2000e18:	e17ff817 	ldw	r5,-32(fp)
 2000e1c:	20050a40 	call	20050a4 <__divsi3>
 2000e20:	e0bff715 	stw	r2,-36(fp)
    slVal = slVal - slNum * slDig;
 2000e24:	e0fff717 	ldw	r3,-36(fp)
 2000e28:	e0bff817 	ldw	r2,-32(fp)
 2000e2c:	1887383a 	mul	r3,r3,r2
 2000e30:	e0bffe17 	ldw	r2,-8(fp)
 2000e34:	10c5c83a 	sub	r2,r2,r3
 2000e38:	e0bffe15 	stw	r2,-8(fp)

    vPrintNum(slNum);			// print one digit
 2000e3c:	e0bff717 	ldw	r2,-36(fp)
 2000e40:	113fffcc 	andi	r4,r2,65535
 2000e44:	2120001c 	xori	r4,r4,32768
 2000e48:	21200004 	addi	r4,r4,-32768
 2000e4c:	20006c00 	call	20006c0 <vPrintNum>
    slDig = slDig / 10;			// select the next digit
 2000e50:	e13ff817 	ldw	r4,-32(fp)
 2000e54:	01400284 	movi	r5,10
 2000e58:	20050a40 	call	20050a4 <__divsi3>
 2000e5c:	e0bff815 	stw	r2,-32(fp)
    slDig = slDig / 10;			// select the next digit
  }

  vPutChar('.');	    		// print the decimal point

  for (i=0; i<(right-1); i++)
 2000e60:	e0bffa8b 	ldhu	r2,-22(fp)
 2000e64:	10800044 	addi	r2,r2,1
 2000e68:	e0bffa8d 	sth	r2,-22(fp)
 2000e6c:	e0bffa8b 	ldhu	r2,-22(fp)
 2000e70:	e0fff98b 	ldhu	r3,-26(fp)
 2000e74:	18ffffc4 	addi	r3,r3,-1
 2000e78:	10ffe616 	blt	r2,r3,2000e14 <vPrintFix+0x3f8>
    vPrintNum(slNum);			// print one digit
    slDig = slDig / 10;			// select the next digit

  }

  vPrintNum(slVal); 			// print one digit
 2000e7c:	e0bffe17 	ldw	r2,-8(fp)
 2000e80:	113fffcc 	andi	r4,r2,65535
 2000e84:	2120001c 	xori	r4,r4,32768
 2000e88:	21200004 	addi	r4,r4,-32768
 2000e8c:	20006c00 	call	20006c0 <vPrintNum>
}
 2000e90:	e037883a 	mov	sp,fp
 2000e94:	dfc00117 	ldw	ra,4(sp)
 2000e98:	df000017 	ldw	fp,0(sp)
 2000e9c:	dec00204 	addi	sp,sp,8
 2000ea0:	f800283a 	ret

02000ea4 <vPrintStaticScreen1>:
extern struct RCVR_STRUCT sRCVR;	// DX6 Spektrum receiver PWM width
extern struct ADC_STRUCT 		sADC;
extern struct DATA_STRUCT	sDATA;	// General data

void vPrintStaticScreen1(void)
{
 2000ea4:	defffe04 	addi	sp,sp,-8
 2000ea8:	dfc00115 	stw	ra,4(sp)
 2000eac:	df000015 	stw	fp,0(sp)
 2000eb0:	d839883a 	mov	fp,sp
	vPutChar(27);     // Start with a clear screen
 2000eb4:	010006c4 	movi	r4,27
 2000eb8:	20006680 	call	2000668 <vPutChar>
	vPutChar('[');
 2000ebc:	010016c4 	movi	r4,91
 2000ec0:	20006680 	call	2000668 <vPutChar>
	vPutChar('2');
 2000ec4:	01000c84 	movi	r4,50
 2000ec8:	20006680 	call	2000668 <vPutChar>
	vPutChar('J');
 2000ecc:	01001284 	movi	r4,74
 2000ed0:	20006680 	call	2000668 <vPutChar>
	vPutChar(0);
 2000ed4:	0009883a 	mov	r4,zero
 2000ed8:	20006680 	call	2000668 <vPutChar>


	vPutChar(27);     // set display attributes
 2000edc:	010006c4 	movi	r4,27
 2000ee0:	20006680 	call	2000668 <vPutChar>
	vPutChar('[');
 2000ee4:	010016c4 	movi	r4,91
 2000ee8:	20006680 	call	2000668 <vPutChar>
	vPutChar('1');	// Bright
 2000eec:	01000c44 	movi	r4,49
 2000ef0:	20006680 	call	2000668 <vPutChar>
	vPutChar(';');
 2000ef4:	01000ec4 	movi	r4,59
 2000ef8:	20006680 	call	2000668 <vPutChar>
	vPutChar('3');	// red foreground
 2000efc:	01000cc4 	movi	r4,51
 2000f00:	20006680 	call	2000668 <vPutChar>
	vPutChar('1');
 2000f04:	01000c44 	movi	r4,49
 2000f08:	20006680 	call	2000668 <vPutChar>
	vPutChar('m');
 2000f0c:	01001b44 	movi	r4,109
 2000f10:	20006680 	call	2000668 <vPutChar>
	vPutChar(0);
 2000f14:	0009883a 	mov	r4,zero
 2000f18:	20006680 	call	2000668 <vPutChar>
	vPutChar(0);
 2000f1c:	0009883a 	mov	r4,zero
 2000f20:	20006680 	call	2000668 <vPutChar>

                       //          1         2         3         4         5         6         7         8
                       // 12345678901234567890123456789012345678901234567890123456789012345678901234567890
	vPrintTxt( 1, 1, 80, "Engineers Week 2014 DE0-NANO Rover Firmware V0.6  Press [t] to enter test mode  "); // 1
 2000f24:	01000044 	movi	r4,1
 2000f28:	01400044 	movi	r5,1
 2000f2c:	01801404 	movi	r6,80
 2000f30:	01c08074 	movhi	r7,513
 2000f34:	39e5a804 	addi	r7,r7,-26976
 2000f38:	20007fc0 	call	20007fc <vPrintTxt>
    //THIS LINE IS RESERVED FOR CURSOR                                                                                                      // 2
	vPrintTxt( 3, 1, 79, "Firmware_PWM_Outputs___| Calibration: Adjust Min/Max PWM, and Neutral Position,");
 2000f3c:	010000c4 	movi	r4,3
 2000f40:	01400044 	movi	r5,1
 2000f44:	018013c4 	movi	r6,79
 2000f48:	01c08074 	movhi	r7,513
 2000f4c:	39e5bd04 	addi	r7,r7,-26892
 2000f50:	20007fc0 	call	20007fc <vPrintTxt>
    vPrintTxt( 4, 1, 79, "Throttle = ##### ms    |              enter letter followed by values ex: A1234");
 2000f54:	01000104 	movi	r4,4
 2000f58:	01400044 	movi	r5,1
 2000f5c:	018013c4 	movi	r6,79
 2000f60:	01c08074 	movhi	r7,513
 2000f64:	39e5d104 	addi	r7,r7,-26812
 2000f68:	20007fc0 	call	20007fc <vPrintTxt>
    vPrintTxt( 5, 1, 79, "Steering = ##### ms    |              |Min__||Max__||Nuet_||Value|             ");
 2000f6c:	01000144 	movi	r4,5
 2000f70:	01400044 	movi	r5,1
 2000f74:	018013c4 	movi	r6,79
 2000f78:	01c08074 	movhi	r7,513
 2000f7c:	39e5e504 	addi	r7,r7,-26732
 2000f80:	20007fc0 	call	20007fc <vPrintTxt>
    vPrintTxt( 6, 1, 79, "                       |   Throttle = |A####||B####||C####|  ####              ");//6      Min/Max PWM, Offset from neutral, va
 2000f84:	01000184 	movi	r4,6
 2000f88:	01400044 	movi	r5,1
 2000f8c:	018013c4 	movi	r6,79
 2000f90:	01c08074 	movhi	r7,513
 2000f94:	39e5f904 	addi	r7,r7,-26652
 2000f98:	20007fc0 	call	20007fc <vPrintTxt>
    vPrintTxt( 7, 1, 79, "Receiver_Ch(n)_PWM_In__|   Steering = |a####||b####||c####|  ####              ");
 2000f9c:	010001c4 	movi	r4,7
 2000fa0:	01400044 	movi	r5,1
 2000fa4:	018013c4 	movi	r6,79
 2000fa8:	01c08074 	movhi	r7,513
 2000fac:	39e60d04 	addi	r7,r7,-26572
 2000fb0:	20007fc0 	call	20007fc <vPrintTxt>
    vPrintTxt( 8, 1, 79, "Throttle(3) = ##### ms |-------------------------------------------------------");
 2000fb4:	01000204 	movi	r4,8
 2000fb8:	01400044 	movi	r5,1
 2000fbc:	018013c4 	movi	r6,79
 2000fc0:	01c08074 	movhi	r7,513
 2000fc4:	39e62104 	addi	r7,r7,-26492
 2000fc8:	20007fc0 	call	20007fc <vPrintTxt>
    vPrintTxt( 9, 1, 79, "Steering(4) = ##### ms | Distance Limit = ####                                 ");
 2000fcc:	01000244 	movi	r4,9
 2000fd0:	01400044 	movi	r5,1
 2000fd4:	018013c4 	movi	r6,79
 2000fd8:	01c08074 	movhi	r7,513
 2000fdc:	39e63504 	addi	r7,r7,-26412
 2000fe0:	20007fc0 	call	20007fc <vPrintTxt>
    vPrintTxt(10, 1, 79, "Channel(5)  = ##### ms | Distance Delta = #####                                ");
 2000fe4:	01000284 	movi	r4,10
 2000fe8:	01400044 	movi	r5,1
 2000fec:	018013c4 	movi	r6,79
 2000ff0:	01c08074 	movhi	r7,513
 2000ff4:	39e64904 	addi	r7,r7,-26332
 2000ff8:	20007fc0 	call	20007fc <vPrintTxt>
    vPrintTxt(11, 1, 79, "Channel(6)  = ##### ms | Distance Overal= #####                                ");
 2000ffc:	010002c4 	movi	r4,11
 2001000:	01400044 	movi	r5,1
 2001004:	018013c4 	movi	r6,79
 2001008:	01c08074 	movhi	r7,513
 200100c:	39e65d04 	addi	r7,r7,-26252
 2001010:	20007fc0 	call	20007fc <vPrintTxt>
    vPrintTxt(12, 1, 24, "                       |");
 2001014:	01000304 	movi	r4,12
 2001018:	01400044 	movi	r5,1
 200101c:	01800604 	movi	r6,24
 2001020:	01c08074 	movhi	r7,513
 2001024:	39e67104 	addi	r7,r7,-26172
 2001028:	20007fc0 	call	20007fc <vPrintTxt>
    vPrintTxt(13, 1, 24, "Receiver_Toggle_Switch_|");
 200102c:	01000344 	movi	r4,13
 2001030:	01400044 	movi	r5,1
 2001034:	01800604 	movi	r6,24
 2001038:	01c08074 	movhi	r7,513
 200103c:	39e67804 	addi	r7,r7,-26144
 2001040:	20007fc0 	call	20007fc <vPrintTxt>
    vPrintTxt(14, 1, 24, "Channel 6 D_Rst  = #   |");
 2001044:	01000384 	movi	r4,14
 2001048:	01400044 	movi	r5,1
 200104c:	01800604 	movi	r6,24
 2001050:	01c08074 	movhi	r7,513
 2001054:	39e67f04 	addi	r7,r7,-26116
 2001058:	20007fc0 	call	20007fc <vPrintTxt>
	vPrintTxt(15, 1, 24, "Auto(1)/Manual(0)= #   |");
 200105c:	010003c4 	movi	r4,15
 2001060:	01400044 	movi	r5,1
 2001064:	01800604 	movi	r6,24
 2001068:	01c08074 	movhi	r7,513
 200106c:	39e68604 	addi	r7,r7,-26088
 2001070:	20007fc0 	call	20007fc <vPrintTxt>
	vPrintTxt(16, 1, 24, "                       |");
 2001074:	01000404 	movi	r4,16
 2001078:	01400044 	movi	r5,1
 200107c:	01800604 	movi	r6,24
 2001080:	01c08074 	movhi	r7,513
 2001084:	39e67104 	addi	r7,r7,-26172
 2001088:	20007fc0 	call	20007fc <vPrintTxt>
	vPrintTxt(17, 1, 24, "Line_Sensor_ADC_Counts_|");
 200108c:	01000444 	movi	r4,17
 2001090:	01400044 	movi	r5,1
 2001094:	01800604 	movi	r6,24
 2001098:	01c08074 	movhi	r7,513
 200109c:	39e68d04 	addi	r7,r7,-26060
 20010a0:	20007fc0 	call	20007fc <vPrintTxt>
    vPrintTxt(18, 1, 24, "Sensor 1 = ####        |");
 20010a4:	01000484 	movi	r4,18
 20010a8:	01400044 	movi	r5,1
 20010ac:	01800604 	movi	r6,24
 20010b0:	01c08074 	movhi	r7,513
 20010b4:	39e69404 	addi	r7,r7,-26032
 20010b8:	20007fc0 	call	20007fc <vPrintTxt>
    vPrintTxt(19, 1, 24, "Sensor 2 = ####        |");
 20010bc:	010004c4 	movi	r4,19
 20010c0:	01400044 	movi	r5,1
 20010c4:	01800604 	movi	r6,24
 20010c8:	01c08074 	movhi	r7,513
 20010cc:	39e69b04 	addi	r7,r7,-26004
 20010d0:	20007fc0 	call	20007fc <vPrintTxt>
	vPrintTxt(20, 1, 24, "Sensor 3 = ####        |");
 20010d4:	01000504 	movi	r4,20
 20010d8:	01400044 	movi	r5,1
 20010dc:	01800604 	movi	r6,24
 20010e0:	01c08074 	movhi	r7,513
 20010e4:	39e6a204 	addi	r7,r7,-25976
 20010e8:	20007fc0 	call	20007fc <vPrintTxt>
	vPrintTxt(21, 1, 24, "Sensor 4 = ####        |");
 20010ec:	01000544 	movi	r4,21
 20010f0:	01400044 	movi	r5,1
 20010f4:	01800604 	movi	r6,24
 20010f8:	01c08074 	movhi	r7,513
 20010fc:	39e6a904 	addi	r7,r7,-25948
 2001100:	20007fc0 	call	20007fc <vPrintTxt>
	vPrintTxt(22, 1, 24, "Sensor 5 = ####        |");
 2001104:	01000584 	movi	r4,22
 2001108:	01400044 	movi	r5,1
 200110c:	01800604 	movi	r6,24
 2001110:	01c08074 	movhi	r7,513
 2001114:	39e6b004 	addi	r7,r7,-25920
 2001118:	20007fc0 	call	20007fc <vPrintTxt>
    vPrintTxt(23, 1, 24, "Sensor 6 = ####        |");
 200111c:	010005c4 	movi	r4,23
 2001120:	01400044 	movi	r5,1
 2001124:	01800604 	movi	r6,24
 2001128:	01c08074 	movhi	r7,513
 200112c:	39e6b704 	addi	r7,r7,-25892
 2001130:	20007fc0 	call	20007fc <vPrintTxt>
    vPrintTxt(24, 1, 24, "Sensor 7 = ####        |");//8
 2001134:	01000604 	movi	r4,24
 2001138:	01400044 	movi	r5,1
 200113c:	01800604 	movi	r6,24
 2001140:	01c08074 	movhi	r7,513
 2001144:	39e6be04 	addi	r7,r7,-25864
 2001148:	20007fc0 	call	20007fc <vPrintTxt>





}
 200114c:	e037883a 	mov	sp,fp
 2001150:	dfc00117 	ldw	ra,4(sp)
 2001154:	df000017 	ldw	fp,0(sp)
 2001158:	dec00204 	addi	sp,sp,8
 200115c:	f800283a 	ret

02001160 <vPrintDynamicScreen1>:
void vPrintDynamicScreen1(void)
{
 2001160:	defffc04 	addi	sp,sp,-16
 2001164:	dfc00315 	stw	ra,12(sp)
 2001168:	df000215 	stw	fp,8(sp)
 200116c:	dc400115 	stw	r17,4(sp)
 2001170:	dc000015 	stw	r16,0(sp)
 2001174:	d839883a 	mov	fp,sp
	/*!
	 * Print values left section of screen
	 */
	//convert counts back to ms duty_counts*period/full counts
	//where for 15bit resoltuion full counts =32767
	vPrintFix( 4, 12,13, (alt_u32)(sDATA.ulThrottlePWM_C*20000/32767));//FW throttle PWM out
 2001178:	00808074 	movhi	r2,513
 200117c:	10ad8004 	addi	r2,r2,-18944
 2001180:	10800817 	ldw	r2,32(r2)
 2001184:	11138824 	muli	r4,r2,20000
 2001188:	015fffc4 	movi	r5,32767
 200118c:	20051640 	call	2005164 <__udivsi3>
 2001190:	100f883a 	mov	r7,r2
 2001194:	01000104 	movi	r4,4
 2001198:	01400304 	movi	r5,12
 200119c:	01800344 	movi	r6,13
 20011a0:	2000a1c0 	call	2000a1c <vPrintFix>
	vPrintFix( 5, 12,13, (alt_u32)(sDATA.ulServoPWM_C *20000/32767)); //FW servo PWM out
 20011a4:	00808074 	movhi	r2,513
 20011a8:	10ad8004 	addi	r2,r2,-18944
 20011ac:	10800017 	ldw	r2,0(r2)
 20011b0:	11138824 	muli	r4,r2,20000
 20011b4:	015fffc4 	movi	r5,32767
 20011b8:	20051640 	call	2005164 <__udivsi3>
 20011bc:	100f883a 	mov	r7,r2
 20011c0:	01000144 	movi	r4,5
 20011c4:	01400304 	movi	r5,12
 20011c8:	01800344 	movi	r6,13
 20011cc:	2000a1c0 	call	2000a1c <vPrintFix>


	//print receiver values
	vPrintFix( 8,15,13,(alt_32)(sRCVR.ulChannel3*20*pow(10,-3)));// channel 3 throttle PWM
 20011d0:	00808074 	movhi	r2,513
 20011d4:	10ad9d04 	addi	r2,r2,-18828
 20011d8:	10800217 	ldw	r2,8(r2)
 20011dc:	11000524 	muli	r4,r2,20
 20011e0:	2004e940 	call	2004e94 <__floatunsidf>
 20011e4:	1021883a 	mov	r16,r2
 20011e8:	1823883a 	mov	r17,r3
 20011ec:	0009883a 	mov	r4,zero
 20011f0:	01500934 	movhi	r5,16420
 20011f4:	000d883a 	mov	r6,zero
 20011f8:	01f00234 	movhi	r7,49160
 20011fc:	200201c0 	call	200201c <pow>
 2001200:	1009883a 	mov	r4,r2
 2001204:	180b883a 	mov	r5,r3
 2001208:	2005883a 	mov	r2,r4
 200120c:	2807883a 	mov	r3,r5
 2001210:	8009883a 	mov	r4,r16
 2001214:	880b883a 	mov	r5,r17
 2001218:	100d883a 	mov	r6,r2
 200121c:	180f883a 	mov	r7,r3
 2001220:	20044000 	call	2004400 <__muldf3>
 2001224:	1009883a 	mov	r4,r2
 2001228:	180b883a 	mov	r5,r3
 200122c:	2005883a 	mov	r2,r4
 2001230:	2807883a 	mov	r3,r5
 2001234:	1009883a 	mov	r4,r2
 2001238:	180b883a 	mov	r5,r3
 200123c:	2004dbc0 	call	2004dbc <__fixdfsi>
 2001240:	100f883a 	mov	r7,r2
 2001244:	01000204 	movi	r4,8
 2001248:	014003c4 	movi	r5,15
 200124c:	01800344 	movi	r6,13
 2001250:	2000a1c0 	call	2000a1c <vPrintFix>
	vPrintFix( 9,15,13,(alt_32)(sRCVR.ulChannel4*20*pow(10,-3)));// channel 4 steering PWM
 2001254:	00808074 	movhi	r2,513
 2001258:	10ad9d04 	addi	r2,r2,-18828
 200125c:	10800317 	ldw	r2,12(r2)
 2001260:	11000524 	muli	r4,r2,20
 2001264:	2004e940 	call	2004e94 <__floatunsidf>
 2001268:	1021883a 	mov	r16,r2
 200126c:	1823883a 	mov	r17,r3
 2001270:	0009883a 	mov	r4,zero
 2001274:	01500934 	movhi	r5,16420
 2001278:	000d883a 	mov	r6,zero
 200127c:	01f00234 	movhi	r7,49160
 2001280:	200201c0 	call	200201c <pow>
 2001284:	100f883a 	mov	r7,r2
 2001288:	1811883a 	mov	r8,r3
 200128c:	8009883a 	mov	r4,r16
 2001290:	880b883a 	mov	r5,r17
 2001294:	380d883a 	mov	r6,r7
 2001298:	400f883a 	mov	r7,r8
 200129c:	20044000 	call	2004400 <__muldf3>
 20012a0:	1009883a 	mov	r4,r2
 20012a4:	180b883a 	mov	r5,r3
 20012a8:	2005883a 	mov	r2,r4
 20012ac:	2807883a 	mov	r3,r5
 20012b0:	1009883a 	mov	r4,r2
 20012b4:	180b883a 	mov	r5,r3
 20012b8:	2004dbc0 	call	2004dbc <__fixdfsi>
 20012bc:	100f883a 	mov	r7,r2
 20012c0:	01000244 	movi	r4,9
 20012c4:	014003c4 	movi	r5,15
 20012c8:	01800344 	movi	r6,13
 20012cc:	2000a1c0 	call	2000a1c <vPrintFix>
	vPrintFix( 10,15,13,(alt_32)(sRCVR.ulChannel5*20*pow(10,-3)));// channel 5
 20012d0:	00808074 	movhi	r2,513
 20012d4:	10ad9d04 	addi	r2,r2,-18828
 20012d8:	10800417 	ldw	r2,16(r2)
 20012dc:	11000524 	muli	r4,r2,20
 20012e0:	2004e940 	call	2004e94 <__floatunsidf>
 20012e4:	1021883a 	mov	r16,r2
 20012e8:	1823883a 	mov	r17,r3
 20012ec:	0009883a 	mov	r4,zero
 20012f0:	01500934 	movhi	r5,16420
 20012f4:	000d883a 	mov	r6,zero
 20012f8:	01f00234 	movhi	r7,49160
 20012fc:	200201c0 	call	200201c <pow>
 2001300:	100f883a 	mov	r7,r2
 2001304:	1811883a 	mov	r8,r3
 2001308:	8009883a 	mov	r4,r16
 200130c:	880b883a 	mov	r5,r17
 2001310:	380d883a 	mov	r6,r7
 2001314:	400f883a 	mov	r7,r8
 2001318:	20044000 	call	2004400 <__muldf3>
 200131c:	1009883a 	mov	r4,r2
 2001320:	180b883a 	mov	r5,r3
 2001324:	2005883a 	mov	r2,r4
 2001328:	2807883a 	mov	r3,r5
 200132c:	1009883a 	mov	r4,r2
 2001330:	180b883a 	mov	r5,r3
 2001334:	2004dbc0 	call	2004dbc <__fixdfsi>
 2001338:	100f883a 	mov	r7,r2
 200133c:	01000284 	movi	r4,10
 2001340:	014003c4 	movi	r5,15
 2001344:	01800344 	movi	r6,13
 2001348:	2000a1c0 	call	2000a1c <vPrintFix>
	vPrintFix( 11,15,13,(alt_32)(sRCVR.ulChannel6*20*pow(10,-3)));// channel 6
 200134c:	00808074 	movhi	r2,513
 2001350:	10ad9d04 	addi	r2,r2,-18828
 2001354:	10800517 	ldw	r2,20(r2)
 2001358:	11000524 	muli	r4,r2,20
 200135c:	2004e940 	call	2004e94 <__floatunsidf>
 2001360:	1021883a 	mov	r16,r2
 2001364:	1823883a 	mov	r17,r3
 2001368:	0009883a 	mov	r4,zero
 200136c:	01500934 	movhi	r5,16420
 2001370:	000d883a 	mov	r6,zero
 2001374:	01f00234 	movhi	r7,49160
 2001378:	200201c0 	call	200201c <pow>
 200137c:	100f883a 	mov	r7,r2
 2001380:	1811883a 	mov	r8,r3
 2001384:	8009883a 	mov	r4,r16
 2001388:	880b883a 	mov	r5,r17
 200138c:	380d883a 	mov	r6,r7
 2001390:	400f883a 	mov	r7,r8
 2001394:	20044000 	call	2004400 <__muldf3>
 2001398:	1009883a 	mov	r4,r2
 200139c:	180b883a 	mov	r5,r3
 20013a0:	2005883a 	mov	r2,r4
 20013a4:	2807883a 	mov	r3,r5
 20013a8:	1009883a 	mov	r4,r2
 20013ac:	180b883a 	mov	r5,r3
 20013b0:	2004dbc0 	call	2004dbc <__fixdfsi>
 20013b4:	100f883a 	mov	r7,r2
 20013b8:	010002c4 	movi	r4,11
 20013bc:	014003c4 	movi	r5,15
 20013c0:	01800344 	movi	r6,13
 20013c4:	2000a1c0 	call	2000a1c <vPrintFix>

	vPrintNlz(14, 20, 4, (alt_32) sDATA.sBits.distance_reset);
 20013c8:	00808074 	movhi	r2,513
 20013cc:	10ad8004 	addi	r2,r2,-18944
 20013d0:	10800c17 	ldw	r2,48(r2)
 20013d4:	1004d07a 	srli	r2,r2,1
 20013d8:	1080004c 	andi	r2,r2,1
 20013dc:	11c03fcc 	andi	r7,r2,255
 20013e0:	01000384 	movi	r4,14
 20013e4:	01400504 	movi	r5,20
 20013e8:	01800104 	movi	r6,4
 20013ec:	20008780 	call	2000878 <vPrintNlz>
	vPrintNlz(15, 20, 4, (alt_32) sDATA.sBits.automatic);
 20013f0:	00808074 	movhi	r2,513
 20013f4:	10ad8004 	addi	r2,r2,-18944
 20013f8:	10800c17 	ldw	r2,48(r2)
 20013fc:	1004d0ba 	srli	r2,r2,2
 2001400:	1080004c 	andi	r2,r2,1
 2001404:	11c03fcc 	andi	r7,r2,255
 2001408:	010003c4 	movi	r4,15
 200140c:	01400504 	movi	r5,20
 2001410:	01800104 	movi	r6,4
 2001414:	20008780 	call	2000878 <vPrintNlz>

	vPrintNlz(18, 12, 4, (alt_32) sADC.ulADC1 );
 2001418:	00808074 	movhi	r2,513
 200141c:	10ad8d04 	addi	r2,r2,-18892
 2001420:	10800017 	ldw	r2,0(r2)
 2001424:	100f883a 	mov	r7,r2
 2001428:	01000484 	movi	r4,18
 200142c:	01400304 	movi	r5,12
 2001430:	01800104 	movi	r6,4
 2001434:	20008780 	call	2000878 <vPrintNlz>
	vPrintNlz(19, 12, 4, (alt_32) sADC.ulADC2 );
 2001438:	00808074 	movhi	r2,513
 200143c:	10ad8d04 	addi	r2,r2,-18892
 2001440:	10800117 	ldw	r2,4(r2)
 2001444:	100f883a 	mov	r7,r2
 2001448:	010004c4 	movi	r4,19
 200144c:	01400304 	movi	r5,12
 2001450:	01800104 	movi	r6,4
 2001454:	20008780 	call	2000878 <vPrintNlz>
	vPrintNlz(20, 12, 4, (alt_32) sADC.ulADC3 );
 2001458:	00808074 	movhi	r2,513
 200145c:	10ad8d04 	addi	r2,r2,-18892
 2001460:	10800217 	ldw	r2,8(r2)
 2001464:	100f883a 	mov	r7,r2
 2001468:	01000504 	movi	r4,20
 200146c:	01400304 	movi	r5,12
 2001470:	01800104 	movi	r6,4
 2001474:	20008780 	call	2000878 <vPrintNlz>
	vPrintNlz(21, 12, 4, (alt_32) sADC.ulADC4 );
 2001478:	00808074 	movhi	r2,513
 200147c:	10ad8d04 	addi	r2,r2,-18892
 2001480:	10800317 	ldw	r2,12(r2)
 2001484:	100f883a 	mov	r7,r2
 2001488:	01000544 	movi	r4,21
 200148c:	01400304 	movi	r5,12
 2001490:	01800104 	movi	r6,4
 2001494:	20008780 	call	2000878 <vPrintNlz>
	vPrintNlz(22, 12, 4, (alt_32) sADC.ulADC5 );
 2001498:	00808074 	movhi	r2,513
 200149c:	10ad8d04 	addi	r2,r2,-18892
 20014a0:	10800417 	ldw	r2,16(r2)
 20014a4:	100f883a 	mov	r7,r2
 20014a8:	01000584 	movi	r4,22
 20014ac:	01400304 	movi	r5,12
 20014b0:	01800104 	movi	r6,4
 20014b4:	20008780 	call	2000878 <vPrintNlz>
	vPrintNlz(23, 12, 4, (alt_32) sADC.ulADC6 );
 20014b8:	00808074 	movhi	r2,513
 20014bc:	10ad8d04 	addi	r2,r2,-18892
 20014c0:	10800517 	ldw	r2,20(r2)
 20014c4:	100f883a 	mov	r7,r2
 20014c8:	010005c4 	movi	r4,23
 20014cc:	01400304 	movi	r5,12
 20014d0:	01800104 	movi	r6,4
 20014d4:	20008780 	call	2000878 <vPrintNlz>
	vPrintNlz(24, 12, 4, (alt_32) sADC.ulADC7 );
 20014d8:	00808074 	movhi	r2,513
 20014dc:	10ad8d04 	addi	r2,r2,-18892
 20014e0:	10800617 	ldw	r2,24(r2)
 20014e4:	100f883a 	mov	r7,r2
 20014e8:	01000604 	movi	r4,24
 20014ec:	01400304 	movi	r5,12
 20014f0:	01800104 	movi	r6,4
 20014f4:	20008780 	call	2000878 <vPrintNlz>

	/*!
	 * print values Configuration section of screen
	 */
	vPrintNlz(6, 41, 4, (alt_32) sDATA.ulThrottleMin    );
 20014f8:	00808074 	movhi	r2,513
 20014fc:	10ad8004 	addi	r2,r2,-18944
 2001500:	10800917 	ldw	r2,36(r2)
 2001504:	100f883a 	mov	r7,r2
 2001508:	01000184 	movi	r4,6
 200150c:	01400a44 	movi	r5,41
 2001510:	01800104 	movi	r6,4
 2001514:	20008780 	call	2000878 <vPrintNlz>
	vPrintNlz(6, 48, 4, (alt_32) sDATA.ulThrottleMax    );
 2001518:	00808074 	movhi	r2,513
 200151c:	10ad8004 	addi	r2,r2,-18944
 2001520:	10800a17 	ldw	r2,40(r2)
 2001524:	100f883a 	mov	r7,r2
 2001528:	01000184 	movi	r4,6
 200152c:	01400c04 	movi	r5,48
 2001530:	01800104 	movi	r6,4
 2001534:	20008780 	call	2000878 <vPrintNlz>
	vPrintNlz(6, 55, 4, (alt_32) sDATA.ulThrottleNeutral);
 2001538:	00808074 	movhi	r2,513
 200153c:	10ad8004 	addi	r2,r2,-18944
 2001540:	10800b17 	ldw	r2,44(r2)
 2001544:	100f883a 	mov	r7,r2
 2001548:	01000184 	movi	r4,6
 200154c:	01400dc4 	movi	r5,55
 2001550:	01800104 	movi	r6,4
 2001554:	20008780 	call	2000878 <vPrintNlz>
	vPrintNlz(6, 62, 4, (alt_32) sDATA.ulThrottlePWM_C  );
 2001558:	00808074 	movhi	r2,513
 200155c:	10ad8004 	addi	r2,r2,-18944
 2001560:	10800817 	ldw	r2,32(r2)
 2001564:	100f883a 	mov	r7,r2
 2001568:	01000184 	movi	r4,6
 200156c:	01400f84 	movi	r5,62
 2001570:	01800104 	movi	r6,4
 2001574:	20008780 	call	2000878 <vPrintNlz>
	vPrintNlz(7, 41, 4, (alt_32) sDATA.ulServoMin );
 2001578:	00808074 	movhi	r2,513
 200157c:	10ad8004 	addi	r2,r2,-18944
 2001580:	10800217 	ldw	r2,8(r2)
 2001584:	100f883a 	mov	r7,r2
 2001588:	010001c4 	movi	r4,7
 200158c:	01400a44 	movi	r5,41
 2001590:	01800104 	movi	r6,4
 2001594:	20008780 	call	2000878 <vPrintNlz>
	vPrintNlz(7, 48, 4, (alt_32) sDATA.ulServoMax );
 2001598:	00808074 	movhi	r2,513
 200159c:	10ad8004 	addi	r2,r2,-18944
 20015a0:	10800317 	ldw	r2,12(r2)
 20015a4:	100f883a 	mov	r7,r2
 20015a8:	010001c4 	movi	r4,7
 20015ac:	01400c04 	movi	r5,48
 20015b0:	01800104 	movi	r6,4
 20015b4:	20008780 	call	2000878 <vPrintNlz>
	vPrintNlz(7, 55, 4, (alt_32) sDATA.ulServoNeutral);
 20015b8:	00808074 	movhi	r2,513
 20015bc:	10ad8004 	addi	r2,r2,-18944
 20015c0:	10800417 	ldw	r2,16(r2)
 20015c4:	100f883a 	mov	r7,r2
 20015c8:	010001c4 	movi	r4,7
 20015cc:	01400dc4 	movi	r5,55
 20015d0:	01800104 	movi	r6,4
 20015d4:	20008780 	call	2000878 <vPrintNlz>
	vPrintNlz(7, 62, 4, (alt_32) sDATA.ulServoPWM_C );
 20015d8:	00808074 	movhi	r2,513
 20015dc:	10ad8004 	addi	r2,r2,-18944
 20015e0:	10800017 	ldw	r2,0(r2)
 20015e4:	100f883a 	mov	r7,r2
 20015e8:	010001c4 	movi	r4,7
 20015ec:	01400f84 	movi	r5,62
 20015f0:	01800104 	movi	r6,4
 20015f4:	20008780 	call	2000878 <vPrintNlz>

	//print distance data
	vPrintNlz(9, 43, 5, (alt_32) sDATA.ulDistanceLimit);
 20015f8:	00808074 	movhi	r2,513
 20015fc:	10ad8004 	addi	r2,r2,-18944
 2001600:	10800717 	ldw	r2,28(r2)
 2001604:	100f883a 	mov	r7,r2
 2001608:	01000244 	movi	r4,9
 200160c:	01400ac4 	movi	r5,43
 2001610:	01800144 	movi	r6,5
 2001614:	20008780 	call	2000878 <vPrintNlz>
	vPrintNlz(10, 43, 5, (alt_32) sDATA.ulDistance_Real - sDATA.ulDistance_Old); // distance delta
 2001618:	00808074 	movhi	r2,513
 200161c:	10ad8004 	addi	r2,r2,-18944
 2001620:	10c00517 	ldw	r3,20(r2)
 2001624:	00808074 	movhi	r2,513
 2001628:	10ad8004 	addi	r2,r2,-18944
 200162c:	10800617 	ldw	r2,24(r2)
 2001630:	1885c83a 	sub	r2,r3,r2
 2001634:	100f883a 	mov	r7,r2
 2001638:	01000284 	movi	r4,10
 200163c:	01400ac4 	movi	r5,43
 2001640:	01800144 	movi	r6,5
 2001644:	20008780 	call	2000878 <vPrintNlz>
	vPrintNlz(11, 43, 5, (alt_32) sDATA.ulDistance_Real); //OVERALL distance
 2001648:	00808074 	movhi	r2,513
 200164c:	10ad8004 	addi	r2,r2,-18944
 2001650:	10800517 	ldw	r2,20(r2)
 2001654:	100f883a 	mov	r7,r2
 2001658:	010002c4 	movi	r4,11
 200165c:	01400ac4 	movi	r5,43
 2001660:	01800144 	movi	r6,5
 2001664:	20008780 	call	2000878 <vPrintNlz>

}
 2001668:	e037883a 	mov	sp,fp
 200166c:	dfc00317 	ldw	ra,12(sp)
 2001670:	df000217 	ldw	fp,8(sp)
 2001674:	dc400117 	ldw	r17,4(sp)
 2001678:	dc000017 	ldw	r16,0(sp)
 200167c:	dec00404 	addi	sp,sp,16
 2001680:	f800283a 	ret

02001684 <vProcessNewKey>:
 * @brief 	Key has been entered, decide what to do with it.
 * @note 	Serial User Interface updated
 * @param  	[in] ubChar The key entered.
 */
void vProcessNewKey(alt_u8 ubChar)
{
 2001684:	defffc04 	addi	sp,sp,-16
 2001688:	dfc00315 	stw	ra,12(sp)
 200168c:	df000215 	stw	fp,8(sp)
 2001690:	df000204 	addi	fp,sp,8
 2001694:	e13ffe05 	stb	r4,-8(fp)
	// Test for Control C to toggle display update
	if (ubChar == 3)
 2001698:	e0bffe03 	ldbu	r2,-8(fp)
 200169c:	108000d8 	cmpnei	r2,r2,3
 20016a0:	1000111e 	bne	r2,zero,20016e8 <vProcessNewKey+0x64>
	{
		sSUI.ubEnableDisplay  = sSUI.ubEnableDisplay ? 0 : 1;
 20016a4:	00808074 	movhi	r2,513
 20016a8:	10ad7704 	addi	r2,r2,-18980
 20016ac:	10800003 	ldbu	r2,0(r2)
 20016b0:	10803fcc 	andi	r2,r2,255
 20016b4:	1005003a 	cmpeq	r2,r2,zero
 20016b8:	1007883a 	mov	r3,r2
 20016bc:	00808074 	movhi	r2,513
 20016c0:	10ad7704 	addi	r2,r2,-18980
 20016c4:	10c00005 	stb	r3,0(r2)
		//when display is toggle, if toggled to on, refresh the display
		if (sSUI.ubEnableDisplay)
 20016c8:	00808074 	movhi	r2,513
 20016cc:	10ad7704 	addi	r2,r2,-18980
 20016d0:	10800003 	ldbu	r2,0(r2)
 20016d4:	10803fcc 	andi	r2,r2,255
 20016d8:	1005003a 	cmpeq	r2,r2,zero
 20016dc:	10001a1e 	bne	r2,zero,2001748 <vProcessNewKey+0xc4>
		{
			vPrintStaticScreen1();
 20016e0:	2000ea40 	call	2000ea4 <vPrintStaticScreen1>
		}
		return;
 20016e4:	00001806 	br	2001748 <vProcessNewKey+0xc4>
	}
	switch(sSUI.ubEntryMode)
 20016e8:	00808074 	movhi	r2,513
 20016ec:	10ad7704 	addi	r2,r2,-18980
 20016f0:	10800043 	ldbu	r2,1(r2)
 20016f4:	10803fcc 	andi	r2,r2,255
 20016f8:	e0bfff15 	stw	r2,-4(fp)
 20016fc:	e0ffff17 	ldw	r3,-4(fp)
 2001700:	18800060 	cmpeqi	r2,r3,1
 2001704:	10000b1e 	bne	r2,zero,2001734 <vProcessNewKey+0xb0>
 2001708:	e0ffff17 	ldw	r3,-4(fp)
 200170c:	18800088 	cmpgei	r2,r3,2
 2001710:	1000041e 	bne	r2,zero,2001724 <vProcessNewKey+0xa0>
 2001714:	e0ffff17 	ldw	r3,-4(fp)
 2001718:	1805003a 	cmpeq	r2,r3,zero
 200171c:	1000081e 	bne	r2,zero,2001740 <vProcessNewKey+0xbc>
 2001720:	00000906 	br	2001748 <vProcessNewKey+0xc4>
 2001724:	e0ffff17 	ldw	r3,-4(fp)
 2001728:	18800108 	cmpgei	r2,r3,4
 200172c:	1000061e 	bne	r2,zero,2001748 <vProcessNewKey+0xc4>
 2001730:	00000306 	br	2001740 <vProcessNewKey+0xbc>
	{
	case ENTRY_MODE_D: 			// Development screen is being displayed
		vMonitorDiagnostic(ubChar); 	// set Dev screen input entry mode
 2001734:	e13ffe03 	ldbu	r4,-8(fp)
 2001738:	200175c0 	call	200175c <vMonitorDiagnostic>
		break;
 200173c:	00000206 	br	2001748 <vProcessNewKey+0xc4>
		//-----------------------------------------------------------------
	case ENTRY_MODE_S:
	case ENTRY_MODE_T:
	case ENTRY_MODE_X:

		vProcessInputValue(ubChar);
 2001740:	e13ffe03 	ldbu	r4,-8(fp)
 2001744:	20018700 	call	2001870 <vProcessInputValue>
		break;
	}
}
 2001748:	e037883a 	mov	sp,fp
 200174c:	dfc00117 	ldw	ra,4(sp)
 2001750:	df000017 	ldw	fp,0(sp)
 2001754:	dec00204 	addi	sp,sp,8
 2001758:	f800283a 	ret

0200175c <vMonitorDiagnostic>:
void vMonitorDiagnostic(alt_u8 ubChar)
{
 200175c:	defffd04 	addi	sp,sp,-12
 2001760:	dfc00215 	stw	ra,8(sp)
 2001764:	df000115 	stw	fp,4(sp)
 2001768:	df000104 	addi	fp,sp,4
 200176c:	e13fff05 	stb	r4,-4(fp)
	// Test for s for servo control
	if (ubChar == 'v')
 2001770:	e0bfff03 	ldbu	r2,-4(fp)
 2001774:	10801d98 	cmpnei	r2,r2,118
 2001778:	1000041e 	bne	r2,zero,200178c <vMonitorDiagnostic+0x30>
	{
		sSUI.ubEntryMode = ENTRY_MODE_S;
 200177c:	00808074 	movhi	r2,513
 2001780:	10ad7704 	addi	r2,r2,-18980
 2001784:	10000045 	stb	zero,1(r2)
 2001788:	00003206 	br	2001854 <vMonitorDiagnostic+0xf8>
	}
	else if (ubChar == 'V')
 200178c:	e0bfff03 	ldbu	r2,-4(fp)
 2001790:	10801598 	cmpnei	r2,r2,86
 2001794:	1000051e 	bne	r2,zero,20017ac <vMonitorDiagnostic+0x50>
	{
		sSUI.ubEntryMode = ENTRY_MODE_T;
 2001798:	00c08074 	movhi	r3,513
 200179c:	18ed7704 	addi	r3,r3,-18980
 20017a0:	008000c4 	movi	r2,3
 20017a4:	18800045 	stb	r2,1(r3)
 20017a8:	00002a06 	br	2001854 <vMonitorDiagnostic+0xf8>
	}
	else if (ubChar == 'x')
 20017ac:	e0bfff03 	ldbu	r2,-4(fp)
 20017b0:	10801e18 	cmpnei	r2,r2,120
 20017b4:	1000051e 	bne	r2,zero,20017cc <vMonitorDiagnostic+0x70>
	{

		sSUI.ubEntryMode = ENTRY_MODE_X;
 20017b8:	00c08074 	movhi	r3,513
 20017bc:	18ed7704 	addi	r3,r3,-18980
 20017c0:	00800084 	movi	r2,2
 20017c4:	18800045 	stb	r2,1(r3)
 20017c8:	00002206 	br	2001854 <vMonitorDiagnostic+0xf8>
	}
	else if(ubChar == 't')
 20017cc:	e0bfff03 	ldbu	r2,-4(fp)
 20017d0:	10801d18 	cmpnei	r2,r2,116
 20017d4:	10000d1e 	bne	r2,zero,200180c <vMonitorDiagnostic+0xb0>
	{
					//now in test mode
		            //edit header
					//          1         2         3         4         5         6         7         8
					// 12345678901234567890123456789012345678901234567890123456789012345678901234567890
                                                  vPrintTxt( 1, 51, 80, "Press [n] to enter normal mode"); // 1
 20017d8:	01000044 	movi	r4,1
 20017dc:	01400cc4 	movi	r5,51
 20017e0:	01801404 	movi	r6,80
 20017e4:	01c08074 	movhi	r7,513
 20017e8:	39e6c504 	addi	r7,r7,-25836
 20017ec:	20007fc0 	call	20007fc <vPrintTxt>
 sDATA.sBits.testOrNormal = TEST;
 20017f0:	01008074 	movhi	r4,513
 20017f4:	212d8004 	addi	r4,r4,-18944
 20017f8:	20c00c17 	ldw	r3,48(r4)
 20017fc:	00bfff84 	movi	r2,-2
 2001800:	1884703a 	and	r2,r3,r2
 2001804:	20800c15 	stw	r2,48(r4)
 2001808:	00001206 	br	2001854 <vMonitorDiagnostic+0xf8>
	}
	else if(ubChar == 'n')
 200180c:	e0bfff03 	ldbu	r2,-4(fp)
 2001810:	10801b98 	cmpnei	r2,r2,110
 2001814:	10000c1e 	bne	r2,zero,2001848 <vMonitorDiagnostic+0xec>

		           //now in normal mode
				   //edit header
		           //          1         2         3         4         5         6         7         8
		           // 12345678901234567890123456789012345678901234567890123456789012345678901234567890
                                                 vPrintTxt( 1, 51, 80, "Press [t] to enter test mode  "); // 1
 2001818:	01000044 	movi	r4,1
 200181c:	01400cc4 	movi	r5,51
 2001820:	01801404 	movi	r6,80
 2001824:	01c08074 	movhi	r7,513
 2001828:	39e6cd04 	addi	r7,r7,-25804
 200182c:	20007fc0 	call	20007fc <vPrintTxt>
sDATA.sBits.testOrNormal = NORMAL;
 2001830:	00808074 	movhi	r2,513
 2001834:	10ad8004 	addi	r2,r2,-18944
 2001838:	10c00c17 	ldw	r3,48(r2)
 200183c:	18c00054 	ori	r3,r3,1
 2001840:	10c00c15 	stw	r3,48(r2)
 2001844:	00000306 	br	2001854 <vMonitorDiagnostic+0xf8>
	}
	else
	{	//not a valid input for diagnostic screen
		vEchoChar(7);	 				// sound bell (echo Control G)
 2001848:	010001c4 	movi	r4,7
 200184c:	2001f8c0 	call	2001f8c <vEchoChar>
		return;
 2001850:	00000206 	br	200185c <vMonitorDiagnostic+0x100>
	}
	vEchoChar(ubChar); //echo the valid character just entered
 2001854:	e13fff03 	ldbu	r4,-4(fp)
 2001858:	2001f8c0 	call	2001f8c <vEchoChar>
}
 200185c:	e037883a 	mov	sp,fp
 2001860:	dfc00117 	ldw	ra,4(sp)
 2001864:	df000017 	ldw	fp,0(sp)
 2001868:	dec00204 	addi	sp,sp,8
 200186c:	f800283a 	ret

02001870 <vProcessInputValue>:
/*!
 * @brief	Process input character, when enter key is pressed perform an action
 * @param 	ubChar input character from HyperTerminal
 */
void vProcessInputValue(alt_u8 ubChar)
{
 2001870:	defffc04 	addi	sp,sp,-16
 2001874:	dfc00315 	stw	ra,12(sp)
 2001878:	df000215 	stw	fp,8(sp)
 200187c:	df000204 	addi	fp,sp,8
 2001880:	e13ffe05 	stb	r4,-8(fp)

	// Test for 0..9 to build the decimal value
	if ((ubChar >= '0') && (ubChar <= '9'))
 2001884:	e0bffe03 	ldbu	r2,-8(fp)
 2001888:	10800c30 	cmpltui	r2,r2,48
 200188c:	10001f1e 	bne	r2,zero,200190c <vProcessInputValue+0x9c>
 2001890:	e0bffe03 	ldbu	r2,-8(fp)
 2001894:	10800ea8 	cmpgeui	r2,r2,58
 2001898:	10001c1e 	bne	r2,zero,200190c <vProcessInputValue+0x9c>
	{
		vCursor(2,2+sSUI.ubCount);
 200189c:	00808074 	movhi	r2,513
 20018a0:	10ad7704 	addi	r2,r2,-18980
 20018a4:	1080008b 	ldhu	r2,2(r2)
 20018a8:	10800084 	addi	r2,r2,2
 20018ac:	117fffcc 	andi	r5,r2,65535
 20018b0:	01000084 	movi	r4,2
 20018b4:	20006f80 	call	20006f8 <vCursor>
		vPutChar(ubChar);					// Echo the numeric value
 20018b8:	e13ffe03 	ldbu	r4,-8(fp)
 20018bc:	20006680 	call	2000668 <vPutChar>

		sSUI.ulAccumulate = sSUI.ulAccumulate * 10 + ubChar - '0';
 20018c0:	00808074 	movhi	r2,513
 20018c4:	10ad7704 	addi	r2,r2,-18980
 20018c8:	10800117 	ldw	r2,4(r2)
 20018cc:	10c002a4 	muli	r3,r2,10
 20018d0:	e0bffe03 	ldbu	r2,-8(fp)
 20018d4:	1885883a 	add	r2,r3,r2
 20018d8:	10fff404 	addi	r3,r2,-48
 20018dc:	00808074 	movhi	r2,513
 20018e0:	10ad7704 	addi	r2,r2,-18980
 20018e4:	10c00115 	stw	r3,4(r2)
		sSUI.ubCount++;
 20018e8:	00808074 	movhi	r2,513
 20018ec:	10ad7704 	addi	r2,r2,-18980
 20018f0:	1080008b 	ldhu	r2,2(r2)
 20018f4:	10800044 	addi	r2,r2,1
 20018f8:	1007883a 	mov	r3,r2
 20018fc:	00808074 	movhi	r2,513
 2001900:	10ad7704 	addi	r2,r2,-18980
 2001904:	10c0008d 	sth	r3,2(r2)
 */
void vProcessInputValue(alt_u8 ubChar)
{

	// Test for 0..9 to build the decimal value
	if ((ubChar >= '0') && (ubChar <= '9'))
 2001908:	00003306 	br	20019d8 <vProcessInputValue+0x168>
		sSUI.ulAccumulate = sSUI.ulAccumulate * 10 + ubChar - '0';
		sSUI.ubCount++;
		//printf("accumulated value %d\n", sSUI.swAccum);
	}

	else if (ubChar == 13)//13 is enter key
 200190c:	e0bffe03 	ldbu	r2,-8(fp)
 2001910:	10800358 	cmpnei	r2,r2,13
 2001914:	1000281e 	bne	r2,zero,20019b8 <vProcessInputValue+0x148>
	{
		vEraseCommand();				// Erase the command line
 2001918:	2001fe00 	call	2001fe0 <vEraseCommand>
		switch(sSUI.ubEntryMode)
 200191c:	00808074 	movhi	r2,513
 2001920:	10ad7704 	addi	r2,r2,-18980
 2001924:	10800043 	ldbu	r2,1(r2)
 2001928:	10803fcc 	andi	r2,r2,255
 200192c:	e0bfff15 	stw	r2,-4(fp)
 2001930:	e0ffff17 	ldw	r3,-4(fp)
 2001934:	188000a0 	cmpeqi	r2,r3,2
 2001938:	1000111e 	bne	r2,zero,2001980 <vProcessInputValue+0x110>
 200193c:	e0ffff17 	ldw	r3,-4(fp)
 2001940:	188000e0 	cmpeqi	r2,r3,3
 2001944:	1000091e 	bne	r2,zero,200196c <vProcessInputValue+0xfc>
 2001948:	e0ffff17 	ldw	r3,-4(fp)
 200194c:	1805003a 	cmpeq	r2,r3,zero
 2001950:	1000011e 	bne	r2,zero,2001958 <vProcessInputValue+0xe8>
 2001954:	00001006 	br	2001998 <vProcessInputValue+0x128>
		{
		case ENTRY_MODE_S:
			vSetServoPWM(sSUI.ulAccumulate);
 2001958:	00808074 	movhi	r2,513
 200195c:	10ad7704 	addi	r2,r2,-18980
 2001960:	11000117 	ldw	r4,4(r2)
 2001964:	2001e6c0 	call	2001e6c <vSetServoPWM>
			break;
 2001968:	00000b06 	br	2001998 <vProcessInputValue+0x128>
		case ENTRY_MODE_T:
			vSetThrottle(sSUI.ulAccumulate);
 200196c:	00808074 	movhi	r2,513
 2001970:	10ad7704 	addi	r2,r2,-18980
 2001974:	11000117 	ldw	r4,4(r2)
 2001978:	2001f400 	call	2001f40 <vSetThrottle>
			break;
 200197c:	00000606 	br	2001998 <vProcessInputValue+0x128>
		case ENTRY_MODE_X:
			sDATA.ulDistanceLimit = sSUI.ulAccumulate;
 2001980:	00808074 	movhi	r2,513
 2001984:	10ad7704 	addi	r2,r2,-18980
 2001988:	10c00117 	ldw	r3,4(r2)
 200198c:	00808074 	movhi	r2,513
 2001990:	10ad8004 	addi	r2,r2,-18944
 2001994:	10c00715 	stw	r3,28(r2)
			break;
		}

		sSUI.ulAccumulate = 0;
 2001998:	00808074 	movhi	r2,513
 200199c:	10ad7704 	addi	r2,r2,-18980
 20019a0:	10000115 	stw	zero,4(r2)
		sSUI.ubEntryMode = ENTRY_MODE_D;
 20019a4:	00c08074 	movhi	r3,513
 20019a8:	18ed7704 	addi	r3,r3,-18980
 20019ac:	00800044 	movi	r2,1
 20019b0:	18800045 	stb	r2,1(r3)
 20019b4:	00000806 	br	20019d8 <vProcessInputValue+0x168>
	} // end of <Enter Key>

	// Invalid entry, abort entry of decimal value
	else
	{
		vEraseCommand();				// Erase the command line
 20019b8:	2001fe00 	call	2001fe0 <vEraseCommand>
		sSUI.ulAccumulate = 0;
 20019bc:	00808074 	movhi	r2,513
 20019c0:	10ad7704 	addi	r2,r2,-18980
 20019c4:	10000115 	stw	zero,4(r2)
		sSUI.ubEntryMode = ENTRY_MODE_D;
 20019c8:	00c08074 	movhi	r3,513
 20019cc:	18ed7704 	addi	r3,r3,-18980
 20019d0:	00800044 	movi	r2,1
 20019d4:	18800045 	stb	r2,1(r3)
	}
}
 20019d8:	e037883a 	mov	sp,fp
 20019dc:	dfc00117 	ldw	ra,4(sp)
 20019e0:	df000017 	ldw	fp,0(sp)
 20019e4:	dec00204 	addi	sp,sp,8
 20019e8:	f800283a 	ret

020019ec <vInitializePWMs>:

void vInitializePWMs()
{
 20019ec:	deffff04 	addi	sp,sp,-4
 20019f0:	df000015 	stw	fp,0(sp)
 20019f4:	d839883a 	mov	fp,sp
	sDATA.ulServoNeutral = 2458;//1.5ms
 20019f8:	00c08074 	movhi	r3,513
 20019fc:	18ed8004 	addi	r3,r3,-18944
 2001a00:	00826684 	movi	r2,2458
 2001a04:	18800415 	stw	r2,16(r3)
	sDATA.ulServoPWM_C = sDATA.ulServoNeutral;
 2001a08:	00808074 	movhi	r2,513
 2001a0c:	10ad8004 	addi	r2,r2,-18944
 2001a10:	10c00417 	ldw	r3,16(r2)
 2001a14:	00808074 	movhi	r2,513
 2001a18:	10ad8004 	addi	r2,r2,-18944
 2001a1c:	10c00015 	stw	r3,0(r2)
	sDATA.ulServoMax = 2703; //1.65ms
 2001a20:	00c08074 	movhi	r3,513
 2001a24:	18ed8004 	addi	r3,r3,-18944
 2001a28:	0082a3c4 	movi	r2,2703
 2001a2c:	18800315 	stw	r2,12(r3)
	sDATA.ulServoMin = 1966; //1.2ms
 2001a30:	00c08074 	movhi	r3,513
 2001a34:	18ed8004 	addi	r3,r3,-18944
 2001a38:	0081eb84 	movi	r2,1966
 2001a3c:	18800215 	stw	r2,8(r3)

	sDATA.ulDistanceLimit = 10;
 2001a40:	00c08074 	movhi	r3,513
 2001a44:	18ed8004 	addi	r3,r3,-18944
 2001a48:	00800284 	movi	r2,10
 2001a4c:	18800715 	stw	r2,28(r3)
	sDATA.ulThrottleNeutral = 2457; //1.5ms
 2001a50:	00c08074 	movhi	r3,513
 2001a54:	18ed8004 	addi	r3,r3,-18944
 2001a58:	00826644 	movi	r2,2457
 2001a5c:	18800b15 	stw	r2,44(r3)
	sDATA.ulThrottlePWM_C = sDATA.ulThrottleNeutral;
 2001a60:	00808074 	movhi	r2,513
 2001a64:	10ad8004 	addi	r2,r2,-18944
 2001a68:	10c00b17 	ldw	r3,44(r2)
 2001a6c:	00808074 	movhi	r2,513
 2001a70:	10ad8004 	addi	r2,r2,-18944
 2001a74:	10c00815 	stw	r3,32(r2)
	sDATA.ulThrottleMax = 3276;
 2001a78:	00c08074 	movhi	r3,513
 2001a7c:	18ed8004 	addi	r3,r3,-18944
 2001a80:	00833304 	movi	r2,3276
 2001a84:	18800a15 	stw	r2,40(r3)
	sDATA.ulThrottleMin = 1638;
 2001a88:	00c08074 	movhi	r3,513
 2001a8c:	18ed8004 	addi	r3,r3,-18944
 2001a90:	00819984 	movi	r2,1638
 2001a94:	18800915 	stw	r2,36(r3)

	sDATA.sBits.testOrNormal = TEST;
 2001a98:	01008074 	movhi	r4,513
 2001a9c:	212d8004 	addi	r4,r4,-18944
 2001aa0:	20c00c17 	ldw	r3,48(r4)
 2001aa4:	00bfff84 	movi	r2,-2
 2001aa8:	1884703a 	and	r2,r3,r2
 2001aac:	20800c15 	stw	r2,48(r4)

	IOWR_32DIRECT(SLAVE_TEMPLATE_0_BASE, (DATA_OUT_14 * 4), (alt_u32)sDATA.ulServoPWM_C);//PWM_Steering);
 2001ab0:	00808074 	movhi	r2,513
 2001ab4:	10ad8004 	addi	r2,r2,-18944
 2001ab8:	10800017 	ldw	r2,0(r2)
 2001abc:	1007883a 	mov	r3,r2
 2001ac0:	00810034 	movhi	r2,1024
 2001ac4:	108ce104 	addi	r2,r2,13188
 2001ac8:	10c00035 	stwio	r3,0(r2)
	IOWR_32DIRECT(SLAVE_TEMPLATE_0_BASE, (DATA_OUT_15 * 4), (alt_u32)sDATA.ulThrottlePWM_C);//PWM throttle
 2001acc:	00808074 	movhi	r2,513
 2001ad0:	10ad8004 	addi	r2,r2,-18944
 2001ad4:	10800817 	ldw	r2,32(r2)
 2001ad8:	1007883a 	mov	r3,r2
 2001adc:	00810034 	movhi	r2,1024
 2001ae0:	108cf104 	addi	r2,r2,13252
 2001ae4:	10c00035 	stwio	r3,0(r2)
}
 2001ae8:	e037883a 	mov	sp,fp
 2001aec:	df000017 	ldw	fp,0(sp)
 2001af0:	dec00104 	addi	sp,sp,4
 2001af4:	f800283a 	ret

02001af8 <processing>:

/*!
 * takes in all photo-transistor sensor value, adjust servo and throttle based on those values
 */
void processing(alt_u32 a,alt_u32 b, alt_u32 c, alt_u32 d, alt_u32 e, alt_u32 f, alt_u32 g ){
 2001af8:	defffb04 	addi	sp,sp,-20
 2001afc:	df000415 	stw	fp,16(sp)
 2001b00:	df000404 	addi	fp,sp,16
 2001b04:	e13ffc15 	stw	r4,-16(fp)
 2001b08:	e17ffd15 	stw	r5,-12(fp)
 2001b0c:	e1bffe15 	stw	r6,-8(fp)
 2001b10:	e1ffff15 	stw	r7,-4(fp)
	sDATA.ulServoPWM_O = sDATA.ulServoPWM_C; //current servo value become old servo value
 2001b14:	00808074 	movhi	r2,513
 2001b18:	10ad8004 	addi	r2,r2,-18944
 2001b1c:	10c00017 	ldw	r3,0(r2)
 2001b20:	00808074 	movhi	r2,513
 2001b24:	10ad8004 	addi	r2,r2,-18944
 2001b28:	10c00115 	stw	r3,4(r2)

	//@todo this is inefficient, effectively calculating minimum value 7 times
	//will change so calculate minimum value once then use switch case statement to set values
																   //Sensor array, [n*] is the lowest value
	if (a <= b && a <= c && a <= d && a <= e && a <= f && a <= g){ //[a*]--[b]--[c]--[d]--[e]--[f]--[g]
 2001b2c:	e0fffc17 	ldw	r3,-16(fp)
 2001b30:	e0bffd17 	ldw	r2,-12(fp)
 2001b34:	10c01736 	bltu	r2,r3,2001b94 <processing+0x9c>
 2001b38:	e0fffc17 	ldw	r3,-16(fp)
 2001b3c:	e0bffe17 	ldw	r2,-8(fp)
 2001b40:	10c01436 	bltu	r2,r3,2001b94 <processing+0x9c>
 2001b44:	e0fffc17 	ldw	r3,-16(fp)
 2001b48:	e0bfff17 	ldw	r2,-4(fp)
 2001b4c:	10c01136 	bltu	r2,r3,2001b94 <processing+0x9c>
 2001b50:	e0fffc17 	ldw	r3,-16(fp)
 2001b54:	e0800117 	ldw	r2,4(fp)
 2001b58:	10c00e36 	bltu	r2,r3,2001b94 <processing+0x9c>
 2001b5c:	e0fffc17 	ldw	r3,-16(fp)
 2001b60:	e0800217 	ldw	r2,8(fp)
 2001b64:	10c00b36 	bltu	r2,r3,2001b94 <processing+0x9c>
 2001b68:	e0fffc17 	ldw	r3,-16(fp)
 2001b6c:	e0800317 	ldw	r2,12(fp)
 2001b70:	10c00836 	bltu	r2,r3,2001b94 <processing+0x9c>
		sDATA.ulServoPWM_C = 2703;
 2001b74:	00c08074 	movhi	r3,513
 2001b78:	18ed8004 	addi	r3,r3,-18944
 2001b7c:	0082a3c4 	movi	r2,2703
 2001b80:	18800015 	stw	r2,0(r3)
		sDATA.ulThrottlePWM_C = 2531;
 2001b84:	00c08074 	movhi	r3,513
 2001b88:	18ed8004 	addi	r3,r3,-18944
 2001b8c:	008278c4 	movi	r2,2531
 2001b90:	18800815 	stw	r2,32(r3)
	}
	if (b <= a && b <= c && b <= d && b <= e && b <= f && b <= g){//[a]--[b*]--[c]--[d]--[e]--[f]--[g]
 2001b94:	e0fffd17 	ldw	r3,-12(fp)
 2001b98:	e0bffc17 	ldw	r2,-16(fp)
 2001b9c:	10c01736 	bltu	r2,r3,2001bfc <processing+0x104>
 2001ba0:	e0fffd17 	ldw	r3,-12(fp)
 2001ba4:	e0bffe17 	ldw	r2,-8(fp)
 2001ba8:	10c01436 	bltu	r2,r3,2001bfc <processing+0x104>
 2001bac:	e0fffd17 	ldw	r3,-12(fp)
 2001bb0:	e0bfff17 	ldw	r2,-4(fp)
 2001bb4:	10c01136 	bltu	r2,r3,2001bfc <processing+0x104>
 2001bb8:	e0fffd17 	ldw	r3,-12(fp)
 2001bbc:	e0800117 	ldw	r2,4(fp)
 2001bc0:	10c00e36 	bltu	r2,r3,2001bfc <processing+0x104>
 2001bc4:	e0fffd17 	ldw	r3,-12(fp)
 2001bc8:	e0800217 	ldw	r2,8(fp)
 2001bcc:	10c00b36 	bltu	r2,r3,2001bfc <processing+0x104>
 2001bd0:	e0fffd17 	ldw	r3,-12(fp)
 2001bd4:	e0800317 	ldw	r2,12(fp)
 2001bd8:	10c00836 	bltu	r2,r3,2001bfc <processing+0x104>
		sDATA.ulServoPWM_C = 2533;
 2001bdc:	00c08074 	movhi	r3,513
 2001be0:	18ed8004 	addi	r3,r3,-18944
 2001be4:	00827944 	movi	r2,2533
 2001be8:	18800015 	stw	r2,0(r3)
		sDATA.ulThrottlePWM_C = 2533;
 2001bec:	00c08074 	movhi	r3,513
 2001bf0:	18ed8004 	addi	r3,r3,-18944
 2001bf4:	00827944 	movi	r2,2533
 2001bf8:	18800815 	stw	r2,32(r3)
	}
	if (c <= a && c <= b && c <= d && c <= e && c <= f && c <= g){//[a]--[b]--[c*]--[d]--[e]--[f]--[g]
 2001bfc:	e0fffe17 	ldw	r3,-8(fp)
 2001c00:	e0bffc17 	ldw	r2,-16(fp)
 2001c04:	10c01736 	bltu	r2,r3,2001c64 <processing+0x16c>
 2001c08:	e0fffe17 	ldw	r3,-8(fp)
 2001c0c:	e0bffd17 	ldw	r2,-12(fp)
 2001c10:	10c01436 	bltu	r2,r3,2001c64 <processing+0x16c>
 2001c14:	e0fffe17 	ldw	r3,-8(fp)
 2001c18:	e0bfff17 	ldw	r2,-4(fp)
 2001c1c:	10c01136 	bltu	r2,r3,2001c64 <processing+0x16c>
 2001c20:	e0fffe17 	ldw	r3,-8(fp)
 2001c24:	e0800117 	ldw	r2,4(fp)
 2001c28:	10c00e36 	bltu	r2,r3,2001c64 <processing+0x16c>
 2001c2c:	e0fffe17 	ldw	r3,-8(fp)
 2001c30:	e0800217 	ldw	r2,8(fp)
 2001c34:	10c00b36 	bltu	r2,r3,2001c64 <processing+0x16c>
 2001c38:	e0fffe17 	ldw	r3,-8(fp)
 2001c3c:	e0800317 	ldw	r2,12(fp)
 2001c40:	10c00836 	bltu	r2,r3,2001c64 <processing+0x16c>
		sDATA.ulServoPWM_C = 2539;
 2001c44:	00c08074 	movhi	r3,513
 2001c48:	18ed8004 	addi	r3,r3,-18944
 2001c4c:	00827ac4 	movi	r2,2539
 2001c50:	18800015 	stw	r2,0(r3)
		sDATA.ulThrottlePWM_C = 2535;
 2001c54:	00c08074 	movhi	r3,513
 2001c58:	18ed8004 	addi	r3,r3,-18944
 2001c5c:	008279c4 	movi	r2,2535
 2001c60:	18800815 	stw	r2,32(r3)
	}
	if (d <= a && d <= b && d <= c && d <= e && d <= f && d <= g){//[a]--[b]--[c]--[d*]--[e]--[f]--[g]
 2001c64:	e0ffff17 	ldw	r3,-4(fp)
 2001c68:	e0bffc17 	ldw	r2,-16(fp)
 2001c6c:	10c01736 	bltu	r2,r3,2001ccc <processing+0x1d4>
 2001c70:	e0ffff17 	ldw	r3,-4(fp)
 2001c74:	e0bffd17 	ldw	r2,-12(fp)
 2001c78:	10c01436 	bltu	r2,r3,2001ccc <processing+0x1d4>
 2001c7c:	e0ffff17 	ldw	r3,-4(fp)
 2001c80:	e0bffe17 	ldw	r2,-8(fp)
 2001c84:	10c01136 	bltu	r2,r3,2001ccc <processing+0x1d4>
 2001c88:	e0ffff17 	ldw	r3,-4(fp)
 2001c8c:	e0800117 	ldw	r2,4(fp)
 2001c90:	10c00e36 	bltu	r2,r3,2001ccc <processing+0x1d4>
 2001c94:	e0ffff17 	ldw	r3,-4(fp)
 2001c98:	e0800217 	ldw	r2,8(fp)
 2001c9c:	10c00b36 	bltu	r2,r3,2001ccc <processing+0x1d4>
 2001ca0:	e0ffff17 	ldw	r3,-4(fp)
 2001ca4:	e0800317 	ldw	r2,12(fp)
 2001ca8:	10c00836 	bltu	r2,r3,2001ccc <processing+0x1d4>
		sDATA.ulServoPWM_C = 2457;
 2001cac:	00c08074 	movhi	r3,513
 2001cb0:	18ed8004 	addi	r3,r3,-18944
 2001cb4:	00826644 	movi	r2,2457
 2001cb8:	18800015 	stw	r2,0(r3)
		sDATA.ulThrottlePWM_C = 2537;
 2001cbc:	00c08074 	movhi	r3,513
 2001cc0:	18ed8004 	addi	r3,r3,-18944
 2001cc4:	00827a44 	movi	r2,2537
 2001cc8:	18800815 	stw	r2,32(r3)
	}
	if (e <= a && e <= b && e <= c && e <= d && e <= f && e <= g){//[a]--[b]--[c]--[d]--[e*]--[f]--[g]
 2001ccc:	e0c00117 	ldw	r3,4(fp)
 2001cd0:	e0bffc17 	ldw	r2,-16(fp)
 2001cd4:	10c01736 	bltu	r2,r3,2001d34 <processing+0x23c>
 2001cd8:	e0c00117 	ldw	r3,4(fp)
 2001cdc:	e0bffd17 	ldw	r2,-12(fp)
 2001ce0:	10c01436 	bltu	r2,r3,2001d34 <processing+0x23c>
 2001ce4:	e0c00117 	ldw	r3,4(fp)
 2001ce8:	e0bffe17 	ldw	r2,-8(fp)
 2001cec:	10c01136 	bltu	r2,r3,2001d34 <processing+0x23c>
 2001cf0:	e0c00117 	ldw	r3,4(fp)
 2001cf4:	e0bfff17 	ldw	r2,-4(fp)
 2001cf8:	10c00e36 	bltu	r2,r3,2001d34 <processing+0x23c>
 2001cfc:	e0c00117 	ldw	r3,4(fp)
 2001d00:	e0800217 	ldw	r2,8(fp)
 2001d04:	10c00b36 	bltu	r2,r3,2001d34 <processing+0x23c>
 2001d08:	e0c00117 	ldw	r3,4(fp)
 2001d0c:	e0800317 	ldw	r2,12(fp)
 2001d10:	10c00836 	bltu	r2,r3,2001d34 <processing+0x23c>
		sDATA.ulServoPWM_C = 2293;
 2001d14:	00c08074 	movhi	r3,513
 2001d18:	18ed8004 	addi	r3,r3,-18944
 2001d1c:	00823d44 	movi	r2,2293
 2001d20:	18800015 	stw	r2,0(r3)
		sDATA.ulThrottlePWM_C = 2535;
 2001d24:	00c08074 	movhi	r3,513
 2001d28:	18ed8004 	addi	r3,r3,-18944
 2001d2c:	008279c4 	movi	r2,2535
 2001d30:	18800815 	stw	r2,32(r3)
	}
	if (f <= a && f <= b && f <= c && f <= d && f <= e && f <= g){//[a]--[b]--[c]--[d]--[e]--[f*]--[g]
 2001d34:	e0c00217 	ldw	r3,8(fp)
 2001d38:	e0bffc17 	ldw	r2,-16(fp)
 2001d3c:	10c01736 	bltu	r2,r3,2001d9c <processing+0x2a4>
 2001d40:	e0c00217 	ldw	r3,8(fp)
 2001d44:	e0bffd17 	ldw	r2,-12(fp)
 2001d48:	10c01436 	bltu	r2,r3,2001d9c <processing+0x2a4>
 2001d4c:	e0c00217 	ldw	r3,8(fp)
 2001d50:	e0bffe17 	ldw	r2,-8(fp)
 2001d54:	10c01136 	bltu	r2,r3,2001d9c <processing+0x2a4>
 2001d58:	e0c00217 	ldw	r3,8(fp)
 2001d5c:	e0bfff17 	ldw	r2,-4(fp)
 2001d60:	10c00e36 	bltu	r2,r3,2001d9c <processing+0x2a4>
 2001d64:	e0c00217 	ldw	r3,8(fp)
 2001d68:	e0800117 	ldw	r2,4(fp)
 2001d6c:	10c00b36 	bltu	r2,r3,2001d9c <processing+0x2a4>
 2001d70:	e0c00217 	ldw	r3,8(fp)
 2001d74:	e0800317 	ldw	r2,12(fp)
 2001d78:	10c00836 	bltu	r2,r3,2001d9c <processing+0x2a4>
		sDATA.ulServoPWM_C = 2129;
 2001d7c:	00c08074 	movhi	r3,513
 2001d80:	18ed8004 	addi	r3,r3,-18944
 2001d84:	00821444 	movi	r2,2129
 2001d88:	18800015 	stw	r2,0(r3)
		sDATA.ulThrottlePWM_C = 2533;
 2001d8c:	00c08074 	movhi	r3,513
 2001d90:	18ed8004 	addi	r3,r3,-18944
 2001d94:	00827944 	movi	r2,2533
 2001d98:	18800815 	stw	r2,32(r3)
	}
	if (g <= a && g <= b && g <= c && g <= d && g <= e && g <= f){//[a]--[b]--[c]--[d]--[e]--[f]--[g*]
 2001d9c:	e0c00317 	ldw	r3,12(fp)
 2001da0:	e0bffc17 	ldw	r2,-16(fp)
 2001da4:	10c01736 	bltu	r2,r3,2001e04 <processing+0x30c>
 2001da8:	e0c00317 	ldw	r3,12(fp)
 2001dac:	e0bffd17 	ldw	r2,-12(fp)
 2001db0:	10c01436 	bltu	r2,r3,2001e04 <processing+0x30c>
 2001db4:	e0c00317 	ldw	r3,12(fp)
 2001db8:	e0bffe17 	ldw	r2,-8(fp)
 2001dbc:	10c01136 	bltu	r2,r3,2001e04 <processing+0x30c>
 2001dc0:	e0c00317 	ldw	r3,12(fp)
 2001dc4:	e0bfff17 	ldw	r2,-4(fp)
 2001dc8:	10c00e36 	bltu	r2,r3,2001e04 <processing+0x30c>
 2001dcc:	e0c00317 	ldw	r3,12(fp)
 2001dd0:	e0800117 	ldw	r2,4(fp)
 2001dd4:	10c00b36 	bltu	r2,r3,2001e04 <processing+0x30c>
 2001dd8:	e0c00317 	ldw	r3,12(fp)
 2001ddc:	e0800217 	ldw	r2,8(fp)
 2001de0:	10c00836 	bltu	r2,r3,2001e04 <processing+0x30c>
		sDATA.ulServoPWM_C = 1966;
 2001de4:	00c08074 	movhi	r3,513
 2001de8:	18ed8004 	addi	r3,r3,-18944
 2001dec:	0081eb84 	movi	r2,1966
 2001df0:	18800015 	stw	r2,0(r3)
		sDATA.ulThrottlePWM_C = 2531;
 2001df4:	00c08074 	movhi	r3,513
 2001df8:	18ed8004 	addi	r3,r3,-18944
 2001dfc:	008278c4 	movi	r2,2531
 2001e00:	18800815 	stw	r2,32(r3)
	}

}
 2001e04:	e037883a 	mov	sp,fp
 2001e08:	df000017 	ldw	fp,0(sp)
 2001e0c:	dec00104 	addi	sp,sp,4
 2001e10:	f800283a 	ret

02001e14 <filter>:


alt_u32 filter(alt_u32 raw_value, alt_u32 filtered_value)
{
 2001e14:	defffb04 	addi	sp,sp,-20
 2001e18:	df000415 	stw	fp,16(sp)
 2001e1c:	df000404 	addi	fp,sp,16
 2001e20:	e13ffd15 	stw	r4,-12(fp)
 2001e24:	e17ffe15 	stw	r5,-8(fp)
	alt_u32 difference;
	difference = raw_value - filtered_value;
 2001e28:	e0fffd17 	ldw	r3,-12(fp)
 2001e2c:	e0bffe17 	ldw	r2,-8(fp)
 2001e30:	1885c83a 	sub	r2,r3,r2
 2001e34:	e0bffc15 	stw	r2,-16(fp)
	//check if difference of raw to filtered value is positive,
	//if positive return positive copy if negative return negative copy
	//then check if the copy is greater than 50, if greater than 50 use raw value
	// if less than 50 use filtered value
	return ((difference > 0 ? difference : -difference) > 50) ? raw_value : filtered_value;
 2001e38:	e0bffc17 	ldw	r2,-16(fp)
 2001e3c:	10800cf0 	cmpltui	r2,r2,51
 2001e40:	1000031e 	bne	r2,zero,2001e50 <filter+0x3c>
 2001e44:	e0bffd17 	ldw	r2,-12(fp)
 2001e48:	e0bfff15 	stw	r2,-4(fp)
 2001e4c:	00000206 	br	2001e58 <filter+0x44>
 2001e50:	e0bffe17 	ldw	r2,-8(fp)
 2001e54:	e0bfff15 	stw	r2,-4(fp)
 2001e58:	e0bfff17 	ldw	r2,-4(fp)
}
 2001e5c:	e037883a 	mov	sp,fp
 2001e60:	df000017 	ldw	fp,0(sp)
 2001e64:	dec00104 	addi	sp,sp,4
 2001e68:	f800283a 	ret

02001e6c <vSetServoPWM>:


void vSetServoPWM(alt_u32 ulPwmValue)
{
 2001e6c:	defffc04 	addi	sp,sp,-16
 2001e70:	df000315 	stw	fp,12(sp)
 2001e74:	df000304 	addi	fp,sp,12
 2001e78:	e13fff15 	stw	r4,-4(fp)
	//want a 1ms minimum pulse width: 1ms/20ms=0.05 then 4095*0.05=204.75
	//PWM_Steering = 307 for 1.5ms pulse width
	//note: might want to increase the resolution to 32 bits later

	//set servo only if within range of servo travel limits
	if((sDATA.ulServoMin <= ulPwmValue) && (ulPwmValue <= sDATA.ulServoMax))
 2001e7c:	00808074 	movhi	r2,513
 2001e80:	10ad8004 	addi	r2,r2,-18944
 2001e84:	10c00217 	ldw	r3,8(r2)
 2001e88:	e0bfff17 	ldw	r2,-4(fp)
 2001e8c:	10c02836 	bltu	r2,r3,2001f30 <vSetServoPWM+0xc4>
 2001e90:	00808074 	movhi	r2,513
 2001e94:	10ad8004 	addi	r2,r2,-18944
 2001e98:	10c00317 	ldw	r3,12(r2)
 2001e9c:	e0bfff17 	ldw	r2,-4(fp)
 2001ea0:	18802336 	bltu	r3,r2,2001f30 <vSetServoPWM+0xc4>
	{


	new_value = ulPwmValue; //new value to bring steering servo up/down to.
 2001ea4:	e0bfff17 	ldw	r2,-4(fp)
 2001ea8:	e0bffe15 	stw	r2,-8(fp)

	old_value = sDATA.ulServoPWM_O;//present value becomes old_value value
 2001eac:	00808074 	movhi	r2,513
 2001eb0:	10ad8004 	addi	r2,r2,-18944
 2001eb4:	10800117 	ldw	r2,4(r2)
 2001eb8:	e0bffd15 	stw	r2,-12(fp)

	//gradually change from old value to new value
	//gradually in this case meaning the change will be pretty quick
	if (new_value > old_value)
 2001ebc:	e0fffe17 	ldw	r3,-8(fp)
 2001ec0:	e0bffd17 	ldw	r2,-12(fp)
 2001ec4:	10c00c2e 	bgeu	r2,r3,2001ef8 <vSetServoPWM+0x8c>
	{
		//ramp the old_value value up to the new value
		while(new_value != old_value)
 2001ec8:	00000706 	br	2001ee8 <vSetServoPWM+0x7c>
		{
			old_value++;
 2001ecc:	e0bffd17 	ldw	r2,-12(fp)
 2001ed0:	10800044 	addi	r2,r2,1
 2001ed4:	e0bffd15 	stw	r2,-12(fp)
			IOWR_32DIRECT(SLAVE_TEMPLATE_0_BASE, (DATA_OUT_14 * 4), (alt_u32)old_value);//PWM_Steering
 2001ed8:	e0fffd17 	ldw	r3,-12(fp)
 2001edc:	00810034 	movhi	r2,1024
 2001ee0:	108ce104 	addi	r2,r2,13188
 2001ee4:	10c00035 	stwio	r3,0(r2)
	//gradually change from old value to new value
	//gradually in this case meaning the change will be pretty quick
	if (new_value > old_value)
	{
		//ramp the old_value value up to the new value
		while(new_value != old_value)
 2001ee8:	e0fffe17 	ldw	r3,-8(fp)
 2001eec:	e0bffd17 	ldw	r2,-12(fp)
 2001ef0:	18bff61e 	bne	r3,r2,2001ecc <vSetServoPWM+0x60>
 2001ef4:	00000e06 	br	2001f30 <vSetServoPWM+0xc4>
			old_value++;
			IOWR_32DIRECT(SLAVE_TEMPLATE_0_BASE, (DATA_OUT_14 * 4), (alt_u32)old_value);//PWM_Steering

		}
	}
	else if(new_value < old_value)
 2001ef8:	e0fffe17 	ldw	r3,-8(fp)
 2001efc:	e0bffd17 	ldw	r2,-12(fp)
 2001f00:	18800b2e 	bgeu	r3,r2,2001f30 <vSetServoPWM+0xc4>
	{
		// ramp the old value down to the new value
		while(new_value != old_value)
 2001f04:	00000706 	br	2001f24 <vSetServoPWM+0xb8>
		{	old_value--;
 2001f08:	e0bffd17 	ldw	r2,-12(fp)
 2001f0c:	10bfffc4 	addi	r2,r2,-1
 2001f10:	e0bffd15 	stw	r2,-12(fp)
			IOWR_32DIRECT(SLAVE_TEMPLATE_0_BASE, (DATA_OUT_14 * 4), (alt_u32)old_value);//PWM_Steering
 2001f14:	e0fffd17 	ldw	r3,-12(fp)
 2001f18:	00810034 	movhi	r2,1024
 2001f1c:	108ce104 	addi	r2,r2,13188
 2001f20:	10c00035 	stwio	r3,0(r2)
		}
	}
	else if(new_value < old_value)
	{
		// ramp the old value down to the new value
		while(new_value != old_value)
 2001f24:	e0fffe17 	ldw	r3,-8(fp)
 2001f28:	e0bffd17 	ldw	r2,-12(fp)
 2001f2c:	18bff61e 	bne	r3,r2,2001f08 <vSetServoPWM+0x9c>

	//value change complete
	//sDATA.ulServoPWM_C = new_value;//update ram copy of present servo value

	}
}
 2001f30:	e037883a 	mov	sp,fp
 2001f34:	df000017 	ldw	fp,0(sp)
 2001f38:	dec00104 	addi	sp,sp,4
 2001f3c:	f800283a 	ret

02001f40 <vSetThrottle>:

void vSetThrottle(alt_u32 ulPwmValue)
{
 2001f40:	defffe04 	addi	sp,sp,-8
 2001f44:	df000115 	stw	fp,4(sp)
 2001f48:	df000104 	addi	fp,sp,4
 2001f4c:	e13fff15 	stw	r4,-4(fp)
	//note: might want to increase the resolution to 32 bits later

	//set throttle only if within range of throttle travel limits
	//if((sDATA.ulThrottleMin <= ulPwmValue) && (ulPwmValue <= sDATA.ulThrottleMax))
	//{
	sDATA.ulThrottlePWM_C = ulPwmValue;
 2001f50:	00c08074 	movhi	r3,513
 2001f54:	18ed8004 	addi	r3,r3,-18944
 2001f58:	e0bfff17 	ldw	r2,-4(fp)
 2001f5c:	18800815 	stw	r2,32(r3)
	IOWR_32DIRECT(SLAVE_TEMPLATE_0_BASE, (DATA_OUT_15 * 4), (alt_u32)sDATA.ulThrottlePWM_C);//PWM_Steering
 2001f60:	00808074 	movhi	r2,513
 2001f64:	10ad8004 	addi	r2,r2,-18944
 2001f68:	10800817 	ldw	r2,32(r2)
 2001f6c:	1007883a 	mov	r3,r2
 2001f70:	00810034 	movhi	r2,1024
 2001f74:	108cf104 	addi	r2,r2,13252
 2001f78:	10c00035 	stwio	r3,0(r2)
	//}
}
 2001f7c:	e037883a 	mov	sp,fp
 2001f80:	df000017 	ldw	fp,0(sp)
 2001f84:	dec00104 	addi	sp,sp,4
 2001f88:	f800283a 	ret

02001f8c <vEchoChar>:
 * @brief 	Echo the "legal" command line key that was entered
 * @note 	Accumulated value is reset
 * @param 	[in] ubChar Character value
 */
void vEchoChar(alt_u8 ubChar)
{
 2001f8c:	defffd04 	addi	sp,sp,-12
 2001f90:	dfc00215 	stw	ra,8(sp)
 2001f94:	df000115 	stw	fp,4(sp)
 2001f98:	df000104 	addi	fp,sp,4
 2001f9c:	e13fff05 	stb	r4,-4(fp)
	vCursor(2,1);
 2001fa0:	01000084 	movi	r4,2
 2001fa4:	01400044 	movi	r5,1
 2001fa8:	20006f80 	call	20006f8 <vCursor>
	vPutChar(ubChar);
 2001fac:	e13fff03 	ldbu	r4,-4(fp)
 2001fb0:	20006680 	call	2000668 <vPutChar>

	sSUI.ulAccumulate = 0;				// Init the accumulated value
 2001fb4:	00808074 	movhi	r2,513
 2001fb8:	10ad7704 	addi	r2,r2,-18980
 2001fbc:	10000115 	stw	zero,4(r2)
	sSUI.ubCount = 0;
 2001fc0:	00808074 	movhi	r2,513
 2001fc4:	10ad7704 	addi	r2,r2,-18980
 2001fc8:	1000008d 	sth	zero,2(r2)
}
 2001fcc:	e037883a 	mov	sp,fp
 2001fd0:	dfc00117 	ldw	ra,4(sp)
 2001fd4:	df000017 	ldw	fp,0(sp)
 2001fd8:	dec00204 	addi	sp,sp,8
 2001fdc:	f800283a 	ret

02001fe0 <vEraseCommand>:
/*!
 * @brief Erase any command line characters
 *
 */
void vEraseCommand(void)
{
 2001fe0:	defffe04 	addi	sp,sp,-8
 2001fe4:	dfc00115 	stw	ra,4(sp)
 2001fe8:	df000015 	stw	fp,0(sp)
 2001fec:	d839883a 	mov	fp,sp
	vPrintTxt(2, 1, 80, "                                                                                ");
 2001ff0:	01000084 	movi	r4,2
 2001ff4:	01400044 	movi	r5,1
 2001ff8:	01801404 	movi	r6,80
 2001ffc:	01c08074 	movhi	r7,513
 2002000:	39e6d504 	addi	r7,r7,-25772
 2002004:	20007fc0 	call	20007fc <vPrintTxt>
}
 2002008:	e037883a 	mov	sp,fp
 200200c:	dfc00117 	ldw	ra,4(sp)
 2002010:	df000017 	ldw	fp,0(sp)
 2002014:	dec00204 	addi	sp,sp,8
 2002018:	f800283a 	ret

0200201c <pow>:
 200201c:	deffee04 	addi	sp,sp,-72
 2002020:	ddc01015 	stw	r23,64(sp)
 2002024:	05c08074 	movhi	r23,513
 2002028:	bded6a04 	addi	r23,r23,-19032
 200202c:	dd800f15 	stw	r22,60(sp)
 2002030:	dd400e15 	stw	r21,56(sp)
 2002034:	dd000d15 	stw	r20,52(sp)
 2002038:	dcc00c15 	stw	r19,48(sp)
 200203c:	dc800b15 	stw	r18,44(sp)
 2002040:	dc400a15 	stw	r17,40(sp)
 2002044:	dc000915 	stw	r16,36(sp)
 2002048:	2029883a 	mov	r20,r4
 200204c:	dfc01115 	stw	ra,68(sp)
 2002050:	3025883a 	mov	r18,r6
 2002054:	282b883a 	mov	r21,r5
 2002058:	3827883a 	mov	r19,r7
 200205c:	20024a40 	call	20024a4 <__ieee754_pow>
 2002060:	b9000017 	ldw	r4,0(r23)
 2002064:	05bfffc4 	movi	r22,-1
 2002068:	1021883a 	mov	r16,r2
 200206c:	1823883a 	mov	r17,r3
 2002070:	25800426 	beq	r4,r22,2002084 <pow+0x68>
 2002074:	9009883a 	mov	r4,r18
 2002078:	980b883a 	mov	r5,r19
 200207c:	2003aa00 	call	2003aa0 <__isnand>
 2002080:	10000d26 	beq	r2,zero,20020b8 <pow+0x9c>
 2002084:	8005883a 	mov	r2,r16
 2002088:	8807883a 	mov	r3,r17
 200208c:	dfc01117 	ldw	ra,68(sp)
 2002090:	ddc01017 	ldw	r23,64(sp)
 2002094:	dd800f17 	ldw	r22,60(sp)
 2002098:	dd400e17 	ldw	r21,56(sp)
 200209c:	dd000d17 	ldw	r20,52(sp)
 20020a0:	dcc00c17 	ldw	r19,48(sp)
 20020a4:	dc800b17 	ldw	r18,44(sp)
 20020a8:	dc400a17 	ldw	r17,40(sp)
 20020ac:	dc000917 	ldw	r16,36(sp)
 20020b0:	dec01204 	addi	sp,sp,72
 20020b4:	f800283a 	ret
 20020b8:	a009883a 	mov	r4,r20
 20020bc:	a80b883a 	mov	r5,r21
 20020c0:	2003aa00 	call	2003aa0 <__isnand>
 20020c4:	1000151e 	bne	r2,zero,200211c <pow+0x100>
 20020c8:	000d883a 	mov	r6,zero
 20020cc:	000f883a 	mov	r7,zero
 20020d0:	a009883a 	mov	r4,r20
 20020d4:	a80b883a 	mov	r5,r21
 20020d8:	2004a1c0 	call	2004a1c <__eqdf2>
 20020dc:	1000541e 	bne	r2,zero,2002230 <pow+0x214>
 20020e0:	000d883a 	mov	r6,zero
 20020e4:	000f883a 	mov	r7,zero
 20020e8:	9009883a 	mov	r4,r18
 20020ec:	980b883a 	mov	r5,r19
 20020f0:	2004a1c0 	call	2004a1c <__eqdf2>
 20020f4:	10002c1e 	bne	r2,zero,20021a8 <pow+0x18c>
 20020f8:	b8800017 	ldw	r2,0(r23)
 20020fc:	d8000615 	stw	zero,24(sp)
 2002100:	d8000715 	stw	zero,28(sp)
 2002104:	10001226 	beq	r2,zero,2002150 <pow+0x134>
 2002108:	008ffc34 	movhi	r2,16368
 200210c:	d8800715 	stw	r2,28(sp)
 2002110:	dc000617 	ldw	r16,24(sp)
 2002114:	dc400717 	ldw	r17,28(sp)
 2002118:	003fda06 	br	2002084 <pow+0x68>
 200211c:	000d883a 	mov	r6,zero
 2002120:	000f883a 	mov	r7,zero
 2002124:	9009883a 	mov	r4,r18
 2002128:	980b883a 	mov	r5,r19
 200212c:	2004a1c0 	call	2004a1c <__eqdf2>
 2002130:	103fd41e 	bne	r2,zero,2002084 <pow+0x68>
 2002134:	b8c00017 	ldw	r3,0(r23)
 2002138:	010ffc34 	movhi	r4,16368
 200213c:	d8000615 	stw	zero,24(sp)
 2002140:	d9000715 	stw	r4,28(sp)
 2002144:	1d801526 	beq	r3,r22,200219c <pow+0x180>
 2002148:	00800084 	movi	r2,2
 200214c:	18801326 	beq	r3,r2,200219c <pow+0x180>
 2002150:	00808074 	movhi	r2,513
 2002154:	10a6ea04 	addi	r2,r2,-25688
 2002158:	00c00044 	movi	r3,1
 200215c:	d809883a 	mov	r4,sp
 2002160:	dcc00515 	stw	r19,20(sp)
 2002164:	dd400315 	stw	r21,12(sp)
 2002168:	d8800115 	stw	r2,4(sp)
 200216c:	d8c00015 	stw	r3,0(sp)
 2002170:	dc800415 	stw	r18,16(sp)
 2002174:	dd000215 	stw	r20,8(sp)
 2002178:	d8000815 	stw	zero,32(sp)
 200217c:	2003ad00 	call	2003ad0 <matherr>
 2002180:	10002726 	beq	r2,zero,2002220 <pow+0x204>
 2002184:	d8800817 	ldw	r2,32(sp)
 2002188:	103fe126 	beq	r2,zero,2002110 <pow+0xf4>
 200218c:	20057a00 	call	20057a0 <__errno>
 2002190:	d8c00817 	ldw	r3,32(sp)
 2002194:	10c00015 	stw	r3,0(r2)
 2002198:	003fdd06 	br	2002110 <pow+0xf4>
 200219c:	d9000715 	stw	r4,28(sp)
 20021a0:	d8000615 	stw	zero,24(sp)
 20021a4:	003fda06 	br	2002110 <pow+0xf4>
 20021a8:	9009883a 	mov	r4,r18
 20021ac:	980b883a 	mov	r5,r19
 20021b0:	2003a840 	call	2003a84 <finite>
 20021b4:	103fb326 	beq	r2,zero,2002084 <pow+0x68>
 20021b8:	000d883a 	mov	r6,zero
 20021bc:	000f883a 	mov	r7,zero
 20021c0:	9009883a 	mov	r4,r18
 20021c4:	980b883a 	mov	r5,r19
 20021c8:	2004bb40 	call	2004bb4 <__ltdf2>
 20021cc:	103fad0e 	bge	r2,zero,2002084 <pow+0x68>
 20021d0:	b9000017 	ldw	r4,0(r23)
 20021d4:	00800044 	movi	r2,1
 20021d8:	00c08074 	movhi	r3,513
 20021dc:	18e6ea04 	addi	r3,r3,-25688
 20021e0:	d8800015 	stw	r2,0(sp)
 20021e4:	d8c00115 	stw	r3,4(sp)
 20021e8:	dd400315 	stw	r21,12(sp)
 20021ec:	dcc00515 	stw	r19,20(sp)
 20021f0:	d8000815 	stw	zero,32(sp)
 20021f4:	dd000215 	stw	r20,8(sp)
 20021f8:	dc800415 	stw	r18,16(sp)
 20021fc:	20005626 	beq	r4,zero,2002358 <pow+0x33c>
 2002200:	00bffc34 	movhi	r2,65520
 2002204:	d8800715 	stw	r2,28(sp)
 2002208:	00800084 	movi	r2,2
 200220c:	d8000615 	stw	zero,24(sp)
 2002210:	20800326 	beq	r4,r2,2002220 <pow+0x204>
 2002214:	d809883a 	mov	r4,sp
 2002218:	2003ad00 	call	2003ad0 <matherr>
 200221c:	103fd91e 	bne	r2,zero,2002184 <pow+0x168>
 2002220:	20057a00 	call	20057a0 <__errno>
 2002224:	00c00844 	movi	r3,33
 2002228:	10c00015 	stw	r3,0(r2)
 200222c:	003fd506 	br	2002184 <pow+0x168>
 2002230:	8009883a 	mov	r4,r16
 2002234:	880b883a 	mov	r5,r17
 2002238:	2003a840 	call	2003a84 <finite>
 200223c:	10002426 	beq	r2,zero,20022d0 <pow+0x2b4>
 2002240:	000d883a 	mov	r6,zero
 2002244:	000f883a 	mov	r7,zero
 2002248:	8009883a 	mov	r4,r16
 200224c:	880b883a 	mov	r5,r17
 2002250:	2004a1c0 	call	2004a1c <__eqdf2>
 2002254:	103f8b1e 	bne	r2,zero,2002084 <pow+0x68>
 2002258:	a009883a 	mov	r4,r20
 200225c:	a80b883a 	mov	r5,r21
 2002260:	2003a840 	call	2003a84 <finite>
 2002264:	103f8726 	beq	r2,zero,2002084 <pow+0x68>
 2002268:	9009883a 	mov	r4,r18
 200226c:	980b883a 	mov	r5,r19
 2002270:	2003a840 	call	2003a84 <finite>
 2002274:	103f8326 	beq	r2,zero,2002084 <pow+0x68>
 2002278:	b9000017 	ldw	r4,0(r23)
 200227c:	00800104 	movi	r2,4
 2002280:	d8800015 	stw	r2,0(sp)
 2002284:	00c08074 	movhi	r3,513
 2002288:	18e6ea04 	addi	r3,r3,-25688
 200228c:	00800084 	movi	r2,2
 2002290:	d8c00115 	stw	r3,4(sp)
 2002294:	dd400315 	stw	r21,12(sp)
 2002298:	dcc00515 	stw	r19,20(sp)
 200229c:	d8000815 	stw	zero,32(sp)
 20022a0:	dd000215 	stw	r20,8(sp)
 20022a4:	dc800415 	stw	r18,16(sp)
 20022a8:	d8000615 	stw	zero,24(sp)
 20022ac:	d8000715 	stw	zero,28(sp)
 20022b0:	20800326 	beq	r4,r2,20022c0 <pow+0x2a4>
 20022b4:	d809883a 	mov	r4,sp
 20022b8:	2003ad00 	call	2003ad0 <matherr>
 20022bc:	103fb11e 	bne	r2,zero,2002184 <pow+0x168>
 20022c0:	20057a00 	call	20057a0 <__errno>
 20022c4:	00c00884 	movi	r3,34
 20022c8:	10c00015 	stw	r3,0(r2)
 20022cc:	003fad06 	br	2002184 <pow+0x168>
 20022d0:	a009883a 	mov	r4,r20
 20022d4:	a80b883a 	mov	r5,r21
 20022d8:	2003a840 	call	2003a84 <finite>
 20022dc:	103fd826 	beq	r2,zero,2002240 <pow+0x224>
 20022e0:	9009883a 	mov	r4,r18
 20022e4:	980b883a 	mov	r5,r19
 20022e8:	2003a840 	call	2003a84 <finite>
 20022ec:	103fd426 	beq	r2,zero,2002240 <pow+0x224>
 20022f0:	880b883a 	mov	r5,r17
 20022f4:	8009883a 	mov	r4,r16
 20022f8:	2003aa00 	call	2003aa0 <__isnand>
 20022fc:	10001926 	beq	r2,zero,2002364 <pow+0x348>
 2002300:	bc000017 	ldw	r16,0(r23)
 2002304:	00800044 	movi	r2,1
 2002308:	00c08074 	movhi	r3,513
 200230c:	18e6ea04 	addi	r3,r3,-25688
 2002310:	d8800015 	stw	r2,0(sp)
 2002314:	d8c00115 	stw	r3,4(sp)
 2002318:	dd400315 	stw	r21,12(sp)
 200231c:	dcc00515 	stw	r19,20(sp)
 2002320:	d8000815 	stw	zero,32(sp)
 2002324:	dd000215 	stw	r20,8(sp)
 2002328:	dc800415 	stw	r18,16(sp)
 200232c:	80000a26 	beq	r16,zero,2002358 <pow+0x33c>
 2002330:	0009883a 	mov	r4,zero
 2002334:	000d883a 	mov	r6,zero
 2002338:	000b883a 	mov	r5,zero
 200233c:	000f883a 	mov	r7,zero
 2002340:	20047c40 	call	20047c4 <__divdf3>
 2002344:	d8800615 	stw	r2,24(sp)
 2002348:	00800084 	movi	r2,2
 200234c:	d8c00715 	stw	r3,28(sp)
 2002350:	80bfb01e 	bne	r16,r2,2002214 <pow+0x1f8>
 2002354:	003fb206 	br	2002220 <pow+0x204>
 2002358:	d8000615 	stw	zero,24(sp)
 200235c:	d8000715 	stw	zero,28(sp)
 2002360:	003fac06 	br	2002214 <pow+0x1f8>
 2002364:	b8800017 	ldw	r2,0(r23)
 2002368:	00c000c4 	movi	r3,3
 200236c:	01008074 	movhi	r4,513
 2002370:	2126ea04 	addi	r4,r4,-25688
 2002374:	d8c00015 	stw	r3,0(sp)
 2002378:	d9000115 	stw	r4,4(sp)
 200237c:	d8000815 	stw	zero,32(sp)
 2002380:	dd000215 	stw	r20,8(sp)
 2002384:	dd400315 	stw	r21,12(sp)
 2002388:	dc800415 	stw	r18,16(sp)
 200238c:	dcc00515 	stw	r19,20(sp)
 2002390:	1000251e 	bne	r2,zero,2002428 <pow+0x40c>
 2002394:	05b80034 	movhi	r22,57344
 2002398:	0091fc34 	movhi	r2,18416
 200239c:	10bfffc4 	addi	r2,r2,-1
 20023a0:	000d883a 	mov	r6,zero
 20023a4:	000f883a 	mov	r7,zero
 20023a8:	a80b883a 	mov	r5,r21
 20023ac:	a009883a 	mov	r4,r20
 20023b0:	d8800715 	stw	r2,28(sp)
 20023b4:	dd800615 	stw	r22,24(sp)
 20023b8:	2004bb40 	call	2004bb4 <__ltdf2>
 20023bc:	103fbd0e 	bge	r2,zero,20022b4 <pow+0x298>
 20023c0:	0005883a 	mov	r2,zero
 20023c4:	00cff834 	movhi	r3,16352
 20023c8:	180f883a 	mov	r7,r3
 20023cc:	100d883a 	mov	r6,r2
 20023d0:	980b883a 	mov	r5,r19
 20023d4:	9009883a 	mov	r4,r18
 20023d8:	20044000 	call	2004400 <__muldf3>
 20023dc:	1009883a 	mov	r4,r2
 20023e0:	180b883a 	mov	r5,r3
 20023e4:	1021883a 	mov	r16,r2
 20023e8:	1823883a 	mov	r17,r3
 20023ec:	2003ae80 	call	2003ae8 <rint>
 20023f0:	180f883a 	mov	r7,r3
 20023f4:	8009883a 	mov	r4,r16
 20023f8:	880b883a 	mov	r5,r17
 20023fc:	100d883a 	mov	r6,r2
 2002400:	2004aa40 	call	2004aa4 <__nedf2>
 2002404:	10000426 	beq	r2,zero,2002418 <pow+0x3fc>
 2002408:	00b1fc34 	movhi	r2,51184
 200240c:	10bfffc4 	addi	r2,r2,-1
 2002410:	dd800615 	stw	r22,24(sp)
 2002414:	d8800715 	stw	r2,28(sp)
 2002418:	b8c00017 	ldw	r3,0(r23)
 200241c:	00800084 	movi	r2,2
 2002420:	18bfa41e 	bne	r3,r2,20022b4 <pow+0x298>
 2002424:	003fa606 	br	20022c0 <pow+0x2a4>
 2002428:	009ffc34 	movhi	r2,32752
 200242c:	000d883a 	mov	r6,zero
 2002430:	000f883a 	mov	r7,zero
 2002434:	a80b883a 	mov	r5,r21
 2002438:	a009883a 	mov	r4,r20
 200243c:	d8800715 	stw	r2,28(sp)
 2002440:	d8000615 	stw	zero,24(sp)
 2002444:	2004bb40 	call	2004bb4 <__ltdf2>
 2002448:	103ff30e 	bge	r2,zero,2002418 <pow+0x3fc>
 200244c:	0005883a 	mov	r2,zero
 2002450:	00cff834 	movhi	r3,16352
 2002454:	180f883a 	mov	r7,r3
 2002458:	100d883a 	mov	r6,r2
 200245c:	980b883a 	mov	r5,r19
 2002460:	9009883a 	mov	r4,r18
 2002464:	20044000 	call	2004400 <__muldf3>
 2002468:	1009883a 	mov	r4,r2
 200246c:	180b883a 	mov	r5,r3
 2002470:	1021883a 	mov	r16,r2
 2002474:	1823883a 	mov	r17,r3
 2002478:	2003ae80 	call	2003ae8 <rint>
 200247c:	180f883a 	mov	r7,r3
 2002480:	8009883a 	mov	r4,r16
 2002484:	880b883a 	mov	r5,r17
 2002488:	100d883a 	mov	r6,r2
 200248c:	2004aa40 	call	2004aa4 <__nedf2>
 2002490:	103fe126 	beq	r2,zero,2002418 <pow+0x3fc>
 2002494:	00bffc34 	movhi	r2,65520
 2002498:	d8800715 	stw	r2,28(sp)
 200249c:	d8000615 	stw	zero,24(sp)
 20024a0:	003fdd06 	br	2002418 <pow+0x3fc>

020024a4 <__ieee754_pow>:
 20024a4:	deffbb04 	addi	sp,sp,-276
 20024a8:	3005883a 	mov	r2,r6
 20024ac:	dd404015 	stw	r21,256(sp)
 20024b0:	dd003f15 	stw	r20,252(sp)
 20024b4:	d9802815 	stw	r6,160(sp)
 20024b8:	2029883a 	mov	r20,r4
 20024bc:	282b883a 	mov	r21,r5
 20024c0:	3009883a 	mov	r4,r6
 20024c4:	380b883a 	mov	r5,r7
 20024c8:	01a00034 	movhi	r6,32768
 20024cc:	31bfffc4 	addi	r6,r6,-1
 20024d0:	dc003b15 	stw	r16,236(sp)
 20024d4:	29a0703a 	and	r16,r5,r6
 20024d8:	1404b03a 	or	r2,r2,r16
 20024dc:	dd804115 	stw	r22,260(sp)
 20024e0:	dc403c15 	stw	r17,240(sp)
 20024e4:	d9c02915 	stw	r7,164(sp)
 20024e8:	382d883a 	mov	r22,r7
 20024ec:	dfc04415 	stw	ra,272(sp)
 20024f0:	200f883a 	mov	r7,r4
 20024f4:	df004315 	stw	fp,268(sp)
 20024f8:	ddc04215 	stw	r23,264(sp)
 20024fc:	dcc03e15 	stw	r19,248(sp)
 2002500:	dc803d15 	stw	r18,244(sp)
 2002504:	a023883a 	mov	r17,r20
 2002508:	2809883a 	mov	r4,r5
 200250c:	10000826 	beq	r2,zero,2002530 <__ieee754_pow+0x8c>
 2002510:	a9a4703a 	and	r18,r21,r6
 2002514:	009ffc34 	movhi	r2,32752
 2002518:	a827883a 	mov	r19,r21
 200251c:	1480180e 	bge	r2,r18,2002580 <__ieee754_pow+0xdc>
 2002520:	00b00434 	movhi	r2,49168
 2002524:	9085883a 	add	r2,r18,r2
 2002528:	8884b03a 	or	r2,r17,r2
 200252c:	1000321e 	bne	r2,zero,20025f8 <__ieee754_pow+0x154>
 2002530:	0009883a 	mov	r4,zero
 2002534:	014ffc34 	movhi	r5,16368
 2002538:	d9002815 	stw	r4,160(sp)
 200253c:	d9402915 	stw	r5,164(sp)
 2002540:	d9002817 	ldw	r4,160(sp)
 2002544:	d9402917 	ldw	r5,164(sp)
 2002548:	2005883a 	mov	r2,r4
 200254c:	2807883a 	mov	r3,r5
 2002550:	dfc04417 	ldw	ra,272(sp)
 2002554:	df004317 	ldw	fp,268(sp)
 2002558:	ddc04217 	ldw	r23,264(sp)
 200255c:	dd804117 	ldw	r22,260(sp)
 2002560:	dd404017 	ldw	r21,256(sp)
 2002564:	dd003f17 	ldw	r20,252(sp)
 2002568:	dcc03e17 	ldw	r19,248(sp)
 200256c:	dc803d17 	ldw	r18,244(sp)
 2002570:	dc403c17 	ldw	r17,240(sp)
 2002574:	dc003b17 	ldw	r16,236(sp)
 2002578:	dec04504 	addi	sp,sp,276
 200257c:	f800283a 	ret
 2002580:	90802b26 	beq	r18,r2,2002630 <__ieee754_pow+0x18c>
 2002584:	143fe616 	blt	r2,r16,2002520 <__ieee754_pow+0x7c>
 2002588:	80806126 	beq	r16,r2,2002710 <__ieee754_pow+0x26c>
 200258c:	982e403a 	cmpge	r23,r19,zero
 2002590:	b8004e26 	beq	r23,zero,20026cc <__ieee754_pow+0x228>
 2002594:	0039883a 	mov	fp,zero
 2002598:	3800281e 	bne	r7,zero,200263c <__ieee754_pow+0x198>
 200259c:	009ffc34 	movhi	r2,32752
 20025a0:	80804f26 	beq	r16,r2,20026e0 <__ieee754_pow+0x23c>
 20025a4:	008ffc34 	movhi	r2,16368
 20025a8:	80808226 	beq	r16,r2,20027b4 <__ieee754_pow+0x310>
 20025ac:	00900034 	movhi	r2,16384
 20025b0:	20828426 	beq	r4,r2,2002fc4 <__ieee754_pow+0xb20>
 20025b4:	008ff834 	movhi	r2,16352
 20025b8:	2080201e 	bne	r4,r2,200263c <__ieee754_pow+0x198>
 20025bc:	98001f16 	blt	r19,zero,200263c <__ieee754_pow+0x198>
 20025c0:	a80b883a 	mov	r5,r21
 20025c4:	a009883a 	mov	r4,r20
 20025c8:	dfc04417 	ldw	ra,272(sp)
 20025cc:	df004317 	ldw	fp,268(sp)
 20025d0:	ddc04217 	ldw	r23,264(sp)
 20025d4:	dd804117 	ldw	r22,260(sp)
 20025d8:	dd404017 	ldw	r21,256(sp)
 20025dc:	dd003f17 	ldw	r20,252(sp)
 20025e0:	dcc03e17 	ldw	r19,248(sp)
 20025e4:	dc803d17 	ldw	r18,244(sp)
 20025e8:	dc403c17 	ldw	r17,240(sp)
 20025ec:	dc003b17 	ldw	r16,236(sp)
 20025f0:	dec04504 	addi	sp,sp,276
 20025f4:	20037a41 	jmpi	20037a4 <__ieee754_sqrt>
 20025f8:	01008074 	movhi	r4,513
 20025fc:	2126eb04 	addi	r4,r4,-25684
 2002600:	dfc04417 	ldw	ra,272(sp)
 2002604:	df004317 	ldw	fp,268(sp)
 2002608:	ddc04217 	ldw	r23,264(sp)
 200260c:	dd804117 	ldw	r22,260(sp)
 2002610:	dd404017 	ldw	r21,256(sp)
 2002614:	dd003f17 	ldw	r20,252(sp)
 2002618:	dcc03e17 	ldw	r19,248(sp)
 200261c:	dc803d17 	ldw	r18,244(sp)
 2002620:	dc403c17 	ldw	r17,240(sp)
 2002624:	dc003b17 	ldw	r16,236(sp)
 2002628:	dec04504 	addi	sp,sp,276
 200262c:	2003ad81 	jmpi	2003ad8 <nan>
 2002630:	a03fbb1e 	bne	r20,zero,2002520 <__ieee754_pow+0x7c>
 2002634:	003fd306 	br	2002584 <__ieee754_pow+0xe0>
 2002638:	0039883a 	mov	fp,zero
 200263c:	a009883a 	mov	r4,r20
 2002640:	a80b883a 	mov	r5,r21
 2002644:	2003a6c0 	call	2003a6c <fabs>
 2002648:	1015883a 	mov	r10,r2
 200264c:	1817883a 	mov	r11,r3
 2002650:	88001226 	beq	r17,zero,200269c <__ieee754_pow+0x1f8>
 2002654:	9804d7fa 	srli	r2,r19,31
 2002658:	10bfffc4 	addi	r2,r2,-1
 200265c:	1706b03a 	or	r3,r2,fp
 2002660:	d8802515 	stw	r2,148(sp)
 2002664:	18002c1e 	bne	r3,zero,2002718 <__ieee754_pow+0x274>
 2002668:	a80f883a 	mov	r7,r21
 200266c:	a009883a 	mov	r4,r20
 2002670:	a80b883a 	mov	r5,r21
 2002674:	a00d883a 	mov	r6,r20
 2002678:	200430c0 	call	200430c <__subdf3>
 200267c:	1009883a 	mov	r4,r2
 2002680:	180b883a 	mov	r5,r3
 2002684:	100d883a 	mov	r6,r2
 2002688:	180f883a 	mov	r7,r3
 200268c:	20047c40 	call	20047c4 <__divdf3>
 2002690:	d8802815 	stw	r2,160(sp)
 2002694:	d8c02915 	stw	r3,164(sp)
 2002698:	003fa906 	br	2002540 <__ieee754_pow+0x9c>
 200269c:	009ffc34 	movhi	r2,32752
 20026a0:	90800326 	beq	r18,r2,20026b0 <__ieee754_pow+0x20c>
 20026a4:	90000226 	beq	r18,zero,20026b0 <__ieee754_pow+0x20c>
 20026a8:	008ffc34 	movhi	r2,16368
 20026ac:	90bfe91e 	bne	r18,r2,2002654 <__ieee754_pow+0x1b0>
 20026b0:	b0026316 	blt	r22,zero,2003040 <__ieee754_pow+0xb9c>
 20026b4:	5011883a 	mov	r8,r10
 20026b8:	5813883a 	mov	r9,r11
 20026bc:	b8023126 	beq	r23,zero,2002f84 <__ieee754_pow+0xae0>
 20026c0:	da002815 	stw	r8,160(sp)
 20026c4:	da402915 	stw	r9,164(sp)
 20026c8:	003f9d06 	br	2002540 <__ieee754_pow+0x9c>
 20026cc:	0090d034 	movhi	r2,17216
 20026d0:	10bfffc4 	addi	r2,r2,-1
 20026d4:	1400270e 	bge	r2,r16,2002774 <__ieee754_pow+0x2d0>
 20026d8:	07000084 	movi	fp,2
 20026dc:	003fae06 	br	2002598 <__ieee754_pow+0xf4>
 20026e0:	00b00434 	movhi	r2,49168
 20026e4:	9085883a 	add	r2,r18,r2
 20026e8:	8884b03a 	or	r2,r17,r2
 20026ec:	103f9026 	beq	r2,zero,2002530 <__ieee754_pow+0x8c>
 20026f0:	008ffc34 	movhi	r2,16368
 20026f4:	10bfffc4 	addi	r2,r2,-1
 20026f8:	1482d00e 	bge	r2,r18,200323c <__ieee754_pow+0xd98>
 20026fc:	b03f900e 	bge	r22,zero,2002540 <__ieee754_pow+0x9c>
 2002700:	0005883a 	mov	r2,zero
 2002704:	d8802815 	stw	r2,160(sp)
 2002708:	d8802915 	stw	r2,164(sp)
 200270c:	003f8c06 	br	2002540 <__ieee754_pow+0x9c>
 2002710:	383f9e26 	beq	r7,zero,200258c <__ieee754_pow+0xe8>
 2002714:	003f8206 	br	2002520 <__ieee754_pow+0x7c>
 2002718:	00907834 	movhi	r2,16864
 200271c:	1400290e 	bge	r2,r16,20027c4 <__ieee754_pow+0x320>
 2002720:	0090fc34 	movhi	r2,17392
 2002724:	1402500e 	bge	r2,r16,2003068 <__ieee754_pow+0xbc4>
 2002728:	008ffc34 	movhi	r2,16368
 200272c:	10bfffc4 	addi	r2,r2,-1
 2002730:	14800b0e 	bge	r2,r18,2002760 <__ieee754_pow+0x2bc>
 2002734:	05800b0e 	bge	zero,r22,2002764 <__ieee754_pow+0x2c0>
 2002738:	00a20034 	movhi	r2,34816
 200273c:	109d6704 	addi	r2,r2,30108
 2002740:	00df8e34 	movhi	r3,32312
 2002744:	18f90f04 	addi	r3,r3,-7108
 2002748:	100d883a 	mov	r6,r2
 200274c:	180f883a 	mov	r7,r3
 2002750:	1009883a 	mov	r4,r2
 2002754:	180b883a 	mov	r5,r3
 2002758:	20044000 	call	2004400 <__muldf3>
 200275c:	003fcc06 	br	2002690 <__ieee754_pow+0x1ec>
 2002760:	b03ff516 	blt	r22,zero,2002738 <__ieee754_pow+0x294>
 2002764:	0007883a 	mov	r3,zero
 2002768:	d8c02815 	stw	r3,160(sp)
 200276c:	d8c02915 	stw	r3,164(sp)
 2002770:	003f7306 	br	2002540 <__ieee754_pow+0x9c>
 2002774:	008ffc34 	movhi	r2,16368
 2002778:	10bfffc4 	addi	r2,r2,-1
 200277c:	143f850e 	bge	r2,r16,2002594 <__ieee754_pow+0xf0>
 2002780:	8005d53a 	srai	r2,r16,20
 2002784:	01400504 	movi	r5,20
 2002788:	10ff0044 	addi	r3,r2,-1023
 200278c:	28c3e10e 	bge	r5,r3,2003714 <__ieee754_pow+0x1270>
 2002790:	00800d04 	movi	r2,52
 2002794:	10c5c83a 	sub	r2,r2,r3
 2002798:	3886d83a 	srl	r3,r7,r2
 200279c:	1884983a 	sll	r2,r3,r2
 20027a0:	38bf7c1e 	bne	r7,r2,2002594 <__ieee754_pow+0xf0>
 20027a4:	18c0004c 	andi	r3,r3,1
 20027a8:	00800084 	movi	r2,2
 20027ac:	10f9c83a 	sub	fp,r2,r3
 20027b0:	003f7906 	br	2002598 <__ieee754_pow+0xf4>
 20027b4:	b0038516 	blt	r22,zero,20035cc <__ieee754_pow+0x1128>
 20027b8:	dd002815 	stw	r20,160(sp)
 20027bc:	dd402915 	stw	r21,164(sp)
 20027c0:	003f5f06 	br	2002540 <__ieee754_pow+0x9c>
 20027c4:	00800434 	movhi	r2,16
 20027c8:	10bfffc4 	addi	r2,r2,-1
 20027cc:	1482900e 	bge	r2,r18,2003210 <__ieee754_pow+0xd6c>
 20027d0:	000b883a 	mov	r5,zero
 20027d4:	9005d53a 	srai	r2,r18,20
 20027d8:	00c00434 	movhi	r3,16
 20027dc:	18ffffc4 	addi	r3,r3,-1
 20027e0:	90c8703a 	and	r4,r18,r3
 20027e4:	2887883a 	add	r3,r5,r2
 20027e8:	18bf0044 	addi	r2,r3,-1023
 20027ec:	d8800015 	stw	r2,0(sp)
 20027f0:	00800134 	movhi	r2,4
 20027f4:	10a62384 	addi	r2,r2,-26482
 20027f8:	250ffc34 	orhi	r20,r4,16368
 20027fc:	1101ee0e 	bge	r2,r4,2002fb8 <__ieee754_pow+0xb14>
 2002800:	00800334 	movhi	r2,12
 2002804:	10ad9e44 	addi	r2,r2,-18823
 2002808:	1101e716 	blt	r2,r4,2002fa8 <__ieee754_pow+0xb04>
 200280c:	01000044 	movi	r4,1
 2002810:	04000334 	movhi	r16,12
 2002814:	200890fa 	slli	r4,r4,3
 2002818:	da800115 	stw	r10,4(sp)
 200281c:	dd000215 	stw	r20,8(sp)
 2002820:	d9002c15 	stw	r4,176(sp)
 2002824:	d9402c17 	ldw	r5,176(sp)
 2002828:	01008074 	movhi	r4,513
 200282c:	2126ec04 	addi	r4,r4,-25680
 2002830:	a02bd07a 	srai	r21,r20,1
 2002834:	2909883a 	add	r4,r5,r4
 2002838:	25800017 	ldw	r22,0(r4)
 200283c:	25c00117 	ldw	r23,4(r4)
 2002840:	a00b883a 	mov	r5,r20
 2002844:	5009883a 	mov	r4,r10
 2002848:	b00d883a 	mov	r6,r22
 200284c:	b80f883a 	mov	r7,r23
 2002850:	200430c0 	call	200430c <__subdf3>
 2002854:	d9000117 	ldw	r4,4(sp)
 2002858:	a00b883a 	mov	r5,r20
 200285c:	b00d883a 	mov	r6,r22
 2002860:	b80f883a 	mov	r7,r23
 2002864:	1025883a 	mov	r18,r2
 2002868:	1827883a 	mov	r19,r3
 200286c:	200438c0 	call	200438c <__adddf3>
 2002870:	0011883a 	mov	r8,zero
 2002874:	024ffc34 	movhi	r9,16368
 2002878:	480b883a 	mov	r5,r9
 200287c:	4009883a 	mov	r4,r8
 2002880:	180f883a 	mov	r7,r3
 2002884:	100d883a 	mov	r6,r2
 2002888:	20047c40 	call	20047c4 <__divdf3>
 200288c:	d8c02e15 	stw	r3,184(sp)
 2002890:	d8800f15 	stw	r2,60(sp)
 2002894:	d8802d15 	stw	r2,180(sp)
 2002898:	d8802e17 	ldw	r2,184(sp)
 200289c:	d9800f17 	ldw	r6,60(sp)
 20028a0:	9009883a 	mov	r4,r18
 20028a4:	980b883a 	mov	r5,r19
 20028a8:	100f883a 	mov	r7,r2
 20028ac:	dc800b15 	stw	r18,44(sp)
 20028b0:	dcc00c15 	stw	r19,48(sp)
 20028b4:	d8801015 	stw	r2,64(sp)
 20028b8:	20044000 	call	2004400 <__muldf3>
 20028bc:	d8c03015 	stw	r3,192(sp)
 20028c0:	d9003017 	ldw	r4,192(sp)
 20028c4:	d8802f15 	stw	r2,188(sp)
 20028c8:	d8800315 	stw	r2,12(sp)
 20028cc:	ad480034 	orhi	r21,r21,8192
 20028d0:	0005883a 	mov	r2,zero
 20028d4:	ac2b883a 	add	r21,r21,r16
 20028d8:	000b883a 	mov	r5,zero
 20028dc:	1021883a 	mov	r16,r2
 20028e0:	2005883a 	mov	r2,r4
 20028e4:	800d883a 	mov	r6,r16
 20028e8:	a80f883a 	mov	r7,r21
 20028ec:	d9000415 	stw	r4,16(sp)
 20028f0:	d9002715 	stw	r4,156(sp)
 20028f4:	d9402615 	stw	r5,152(sp)
 20028f8:	d9401615 	stw	r5,88(sp)
 20028fc:	d9001715 	stw	r4,92(sp)
 2002900:	100b883a 	mov	r5,r2
 2002904:	0009883a 	mov	r4,zero
 2002908:	20044000 	call	2004400 <__muldf3>
 200290c:	d9000b17 	ldw	r4,44(sp)
 2002910:	980b883a 	mov	r5,r19
 2002914:	180f883a 	mov	r7,r3
 2002918:	100d883a 	mov	r6,r2
 200291c:	200430c0 	call	200430c <__subdf3>
 2002920:	8009883a 	mov	r4,r16
 2002924:	a80b883a 	mov	r5,r21
 2002928:	b80f883a 	mov	r7,r23
 200292c:	b00d883a 	mov	r6,r22
 2002930:	1021883a 	mov	r16,r2
 2002934:	1823883a 	mov	r17,r3
 2002938:	200430c0 	call	200430c <__subdf3>
 200293c:	d9000117 	ldw	r4,4(sp)
 2002940:	a00b883a 	mov	r5,r20
 2002944:	180f883a 	mov	r7,r3
 2002948:	100d883a 	mov	r6,r2
 200294c:	200430c0 	call	200430c <__subdf3>
 2002950:	d9001617 	ldw	r4,88(sp)
 2002954:	d9402717 	ldw	r5,156(sp)
 2002958:	180f883a 	mov	r7,r3
 200295c:	100d883a 	mov	r6,r2
 2002960:	20044000 	call	2004400 <__muldf3>
 2002964:	180f883a 	mov	r7,r3
 2002968:	880b883a 	mov	r5,r17
 200296c:	8009883a 	mov	r4,r16
 2002970:	100d883a 	mov	r6,r2
 2002974:	200430c0 	call	200430c <__subdf3>
 2002978:	d9000f17 	ldw	r4,60(sp)
 200297c:	d9402e17 	ldw	r5,184(sp)
 2002980:	180f883a 	mov	r7,r3
 2002984:	100d883a 	mov	r6,r2
 2002988:	20044000 	call	2004400 <__muldf3>
 200298c:	d9000317 	ldw	r4,12(sp)
 2002990:	d9403017 	ldw	r5,192(sp)
 2002994:	d8803115 	stw	r2,196(sp)
 2002998:	200d883a 	mov	r6,r4
 200299c:	280f883a 	mov	r7,r5
 20029a0:	d8c03215 	stw	r3,200(sp)
 20029a4:	20044000 	call	2004400 <__muldf3>
 20029a8:	1009883a 	mov	r4,r2
 20029ac:	180b883a 	mov	r5,r3
 20029b0:	100d883a 	mov	r6,r2
 20029b4:	180f883a 	mov	r7,r3
 20029b8:	1021883a 	mov	r16,r2
 20029bc:	1823883a 	mov	r17,r3
 20029c0:	20044000 	call	2004400 <__muldf3>
 20029c4:	02129174 	movhi	r8,19013
 20029c8:	4213bbc4 	addi	r8,r8,20207
 20029cc:	024ff2b4 	movhi	r9,16330
 20029d0:	4a5f8a04 	addi	r9,r9,32296
 20029d4:	480f883a 	mov	r7,r9
 20029d8:	8009883a 	mov	r4,r16
 20029dc:	880b883a 	mov	r5,r17
 20029e0:	400d883a 	mov	r6,r8
 20029e4:	1029883a 	mov	r20,r2
 20029e8:	182b883a 	mov	r21,r3
 20029ec:	20044000 	call	2004400 <__muldf3>
 20029f0:	0224f2b4 	movhi	r8,37834
 20029f4:	4236d944 	addi	r8,r8,-9371
 20029f8:	024ff3b4 	movhi	r9,16334
 20029fc:	4a619284 	addi	r9,r9,-31158
 2002a00:	480f883a 	mov	r7,r9
 2002a04:	400d883a 	mov	r6,r8
 2002a08:	180b883a 	mov	r5,r3
 2002a0c:	1009883a 	mov	r4,r2
 2002a10:	200438c0 	call	200438c <__adddf3>
 2002a14:	180f883a 	mov	r7,r3
 2002a18:	8009883a 	mov	r4,r16
 2002a1c:	880b883a 	mov	r5,r17
 2002a20:	100d883a 	mov	r6,r2
 2002a24:	20044000 	call	2004400 <__muldf3>
 2002a28:	022a4774 	movhi	r8,43293
 2002a2c:	42104044 	addi	r8,r8,16641
 2002a30:	024ff474 	movhi	r9,16337
 2002a34:	4a5d1804 	addi	r9,r9,29792
 2002a38:	480f883a 	mov	r7,r9
 2002a3c:	400d883a 	mov	r6,r8
 2002a40:	180b883a 	mov	r5,r3
 2002a44:	1009883a 	mov	r4,r2
 2002a48:	200438c0 	call	200438c <__adddf3>
 2002a4c:	180f883a 	mov	r7,r3
 2002a50:	8009883a 	mov	r4,r16
 2002a54:	880b883a 	mov	r5,r17
 2002a58:	100d883a 	mov	r6,r2
 2002a5c:	20044000 	call	2004400 <__muldf3>
 2002a60:	021463f4 	movhi	r8,20879
 2002a64:	42099344 	addi	r8,r8,9805
 2002a68:	024ff574 	movhi	r9,16341
 2002a6c:	4a555544 	addi	r9,r9,21845
 2002a70:	480f883a 	mov	r7,r9
 2002a74:	400d883a 	mov	r6,r8
 2002a78:	180b883a 	mov	r5,r3
 2002a7c:	1009883a 	mov	r4,r2
 2002a80:	200438c0 	call	200438c <__adddf3>
 2002a84:	180f883a 	mov	r7,r3
 2002a88:	8009883a 	mov	r4,r16
 2002a8c:	880b883a 	mov	r5,r17
 2002a90:	100d883a 	mov	r6,r2
 2002a94:	20044000 	call	2004400 <__muldf3>
 2002a98:	0236dc34 	movhi	r8,56176
 2002a9c:	422affc4 	addi	r8,r8,-21505
 2002aa0:	024ff6f4 	movhi	r9,16347
 2002aa4:	4a5b6d84 	addi	r9,r9,28086
 2002aa8:	480f883a 	mov	r7,r9
 2002aac:	400d883a 	mov	r6,r8
 2002ab0:	180b883a 	mov	r5,r3
 2002ab4:	1009883a 	mov	r4,r2
 2002ab8:	200438c0 	call	200438c <__adddf3>
 2002abc:	180f883a 	mov	r7,r3
 2002ac0:	8009883a 	mov	r4,r16
 2002ac4:	880b883a 	mov	r5,r17
 2002ac8:	100d883a 	mov	r6,r2
 2002acc:	20044000 	call	2004400 <__muldf3>
 2002ad0:	020cccf4 	movhi	r8,13107
 2002ad4:	420cc0c4 	addi	r8,r8,13059
 2002ad8:	024ff8f4 	movhi	r9,16355
 2002adc:	4a4cccc4 	addi	r9,r9,13107
 2002ae0:	480f883a 	mov	r7,r9
 2002ae4:	400d883a 	mov	r6,r8
 2002ae8:	180b883a 	mov	r5,r3
 2002aec:	1009883a 	mov	r4,r2
 2002af0:	200438c0 	call	200438c <__adddf3>
 2002af4:	180f883a 	mov	r7,r3
 2002af8:	a80b883a 	mov	r5,r21
 2002afc:	a009883a 	mov	r4,r20
 2002b00:	100d883a 	mov	r6,r2
 2002b04:	20044000 	call	2004400 <__muldf3>
 2002b08:	d9000317 	ldw	r4,12(sp)
 2002b0c:	d9403017 	ldw	r5,192(sp)
 2002b10:	d9801617 	ldw	r6,88(sp)
 2002b14:	d9c02717 	ldw	r7,156(sp)
 2002b18:	1021883a 	mov	r16,r2
 2002b1c:	1823883a 	mov	r17,r3
 2002b20:	200438c0 	call	200438c <__adddf3>
 2002b24:	d9003117 	ldw	r4,196(sp)
 2002b28:	d9403217 	ldw	r5,200(sp)
 2002b2c:	180f883a 	mov	r7,r3
 2002b30:	100d883a 	mov	r6,r2
 2002b34:	d9001415 	stw	r4,80(sp)
 2002b38:	d9401515 	stw	r5,84(sp)
 2002b3c:	20044000 	call	2004400 <__muldf3>
 2002b40:	180f883a 	mov	r7,r3
 2002b44:	8009883a 	mov	r4,r16
 2002b48:	880b883a 	mov	r5,r17
 2002b4c:	100d883a 	mov	r6,r2
 2002b50:	200438c0 	call	200438c <__adddf3>
 2002b54:	d9001617 	ldw	r4,88(sp)
 2002b58:	d9402717 	ldw	r5,156(sp)
 2002b5c:	d8803315 	stw	r2,204(sp)
 2002b60:	200d883a 	mov	r6,r4
 2002b64:	280f883a 	mov	r7,r5
 2002b68:	d8c03415 	stw	r3,208(sp)
 2002b6c:	20044000 	call	2004400 <__muldf3>
 2002b70:	182f883a 	mov	r23,r3
 2002b74:	05500234 	movhi	r21,16392
 2002b78:	0029883a 	mov	r20,zero
 2002b7c:	b80b883a 	mov	r5,r23
 2002b80:	a00d883a 	mov	r6,r20
 2002b84:	a80f883a 	mov	r7,r21
 2002b88:	1009883a 	mov	r4,r2
 2002b8c:	d8800715 	stw	r2,28(sp)
 2002b90:	d8c00815 	stw	r3,32(sp)
 2002b94:	200438c0 	call	200438c <__adddf3>
 2002b98:	d9003317 	ldw	r4,204(sp)
 2002b9c:	d9403417 	ldw	r5,208(sp)
 2002ba0:	180f883a 	mov	r7,r3
 2002ba4:	100d883a 	mov	r6,r2
 2002ba8:	d9000515 	stw	r4,20(sp)
 2002bac:	d9400615 	stw	r5,24(sp)
 2002bb0:	200438c0 	call	200438c <__adddf3>
 2002bb4:	d9001617 	ldw	r4,88(sp)
 2002bb8:	d9402717 	ldw	r5,156(sp)
 2002bbc:	0025883a 	mov	r18,zero
 2002bc0:	900d883a 	mov	r6,r18
 2002bc4:	180f883a 	mov	r7,r3
 2002bc8:	1823883a 	mov	r17,r3
 2002bcc:	20044000 	call	2004400 <__muldf3>
 2002bd0:	d9001417 	ldw	r4,80(sp)
 2002bd4:	d9403217 	ldw	r5,200(sp)
 2002bd8:	880f883a 	mov	r7,r17
 2002bdc:	900d883a 	mov	r6,r18
 2002be0:	d8803515 	stw	r2,212(sp)
 2002be4:	d8c03615 	stw	r3,216(sp)
 2002be8:	20044000 	call	2004400 <__muldf3>
 2002bec:	a80f883a 	mov	r7,r21
 2002bf0:	880b883a 	mov	r5,r17
 2002bf4:	000d883a 	mov	r6,zero
 2002bf8:	9009883a 	mov	r4,r18
 2002bfc:	1021883a 	mov	r16,r2
 2002c00:	1823883a 	mov	r17,r3
 2002c04:	200430c0 	call	200430c <__subdf3>
 2002c08:	d9800717 	ldw	r6,28(sp)
 2002c0c:	b80f883a 	mov	r7,r23
 2002c10:	180b883a 	mov	r5,r3
 2002c14:	1009883a 	mov	r4,r2
 2002c18:	200430c0 	call	200430c <__subdf3>
 2002c1c:	d9000517 	ldw	r4,20(sp)
 2002c20:	d9403417 	ldw	r5,208(sp)
 2002c24:	180f883a 	mov	r7,r3
 2002c28:	100d883a 	mov	r6,r2
 2002c2c:	200430c0 	call	200430c <__subdf3>
 2002c30:	d9000317 	ldw	r4,12(sp)
 2002c34:	d9403017 	ldw	r5,192(sp)
 2002c38:	180f883a 	mov	r7,r3
 2002c3c:	100d883a 	mov	r6,r2
 2002c40:	20044000 	call	2004400 <__muldf3>
 2002c44:	180f883a 	mov	r7,r3
 2002c48:	880b883a 	mov	r5,r17
 2002c4c:	8009883a 	mov	r4,r16
 2002c50:	100d883a 	mov	r6,r2
 2002c54:	200438c0 	call	200438c <__adddf3>
 2002c58:	102d883a 	mov	r22,r2
 2002c5c:	d9003617 	ldw	r4,216(sp)
 2002c60:	d8803517 	ldw	r2,212(sp)
 2002c64:	d9403617 	ldw	r5,216(sp)
 2002c68:	182f883a 	mov	r23,r3
 2002c6c:	b00d883a 	mov	r6,r22
 2002c70:	b80f883a 	mov	r7,r23
 2002c74:	d9000a15 	stw	r4,40(sp)
 2002c78:	1009883a 	mov	r4,r2
 2002c7c:	054ffbf4 	movhi	r21,16367
 2002c80:	ad71c244 	addi	r21,r21,-14583
 2002c84:	dd800d15 	stw	r22,52(sp)
 2002c88:	ddc00e15 	stw	r23,56(sp)
 2002c8c:	05380034 	movhi	r20,57344
 2002c90:	d8800915 	stw	r2,36(sp)
 2002c94:	200438c0 	call	200438c <__adddf3>
 2002c98:	180b883a 	mov	r5,r3
 2002c9c:	a00d883a 	mov	r6,r20
 2002ca0:	a80f883a 	mov	r7,r21
 2002ca4:	9009883a 	mov	r4,r18
 2002ca8:	1823883a 	mov	r17,r3
 2002cac:	20044000 	call	2004400 <__muldf3>
 2002cb0:	020516f4 	movhi	r8,5211
 2002cb4:	42007d44 	addi	r8,r8,501
 2002cb8:	026f8fb4 	movhi	r9,48702
 2002cbc:	4a4bf804 	addi	r9,r9,12256
 2002cc0:	480f883a 	mov	r7,r9
 2002cc4:	400d883a 	mov	r6,r8
 2002cc8:	880b883a 	mov	r5,r17
 2002ccc:	9009883a 	mov	r4,r18
 2002cd0:	d8803715 	stw	r2,220(sp)
 2002cd4:	d8c03815 	stw	r3,224(sp)
 2002cd8:	20044000 	call	2004400 <__muldf3>
 2002cdc:	d9800917 	ldw	r6,36(sp)
 2002ce0:	d9c03617 	ldw	r7,216(sp)
 2002ce4:	880b883a 	mov	r5,r17
 2002ce8:	9009883a 	mov	r4,r18
 2002cec:	1021883a 	mov	r16,r2
 2002cf0:	1823883a 	mov	r17,r3
 2002cf4:	200430c0 	call	200430c <__subdf3>
 2002cf8:	d9000d17 	ldw	r4,52(sp)
 2002cfc:	b80b883a 	mov	r5,r23
 2002d00:	180f883a 	mov	r7,r3
 2002d04:	100d883a 	mov	r6,r2
 2002d08:	200430c0 	call	200430c <__subdf3>
 2002d0c:	180b883a 	mov	r5,r3
 2002d10:	a80f883a 	mov	r7,r21
 2002d14:	01b70eb4 	movhi	r6,56378
 2002d18:	3180ff44 	addi	r6,r6,1021
 2002d1c:	1009883a 	mov	r4,r2
 2002d20:	20044000 	call	2004400 <__muldf3>
 2002d24:	180f883a 	mov	r7,r3
 2002d28:	880b883a 	mov	r5,r17
 2002d2c:	8009883a 	mov	r4,r16
 2002d30:	100d883a 	mov	r6,r2
 2002d34:	200438c0 	call	200438c <__adddf3>
 2002d38:	d9402c17 	ldw	r5,176(sp)
 2002d3c:	01008074 	movhi	r4,513
 2002d40:	2126f004 	addi	r4,r4,-25664
 2002d44:	2909883a 	add	r4,r5,r4
 2002d48:	22400117 	ldw	r9,4(r4)
 2002d4c:	22000017 	ldw	r8,0(r4)
 2002d50:	180b883a 	mov	r5,r3
 2002d54:	480f883a 	mov	r7,r9
 2002d58:	400d883a 	mov	r6,r8
 2002d5c:	1009883a 	mov	r4,r2
 2002d60:	200438c0 	call	200438c <__adddf3>
 2002d64:	d9000017 	ldw	r4,0(sp)
 2002d68:	182f883a 	mov	r23,r3
 2002d6c:	102d883a 	mov	r22,r2
 2002d70:	2004cc40 	call	2004cc4 <__floatsidf>
 2002d74:	d9402c17 	ldw	r5,176(sp)
 2002d78:	01008074 	movhi	r4,513
 2002d7c:	2126f404 	addi	r4,r4,-25648
 2002d80:	b00d883a 	mov	r6,r22
 2002d84:	2911883a 	add	r8,r5,r4
 2002d88:	d9003717 	ldw	r4,220(sp)
 2002d8c:	d9403817 	ldw	r5,224(sp)
 2002d90:	45000017 	ldw	r20,0(r8)
 2002d94:	d9002315 	stw	r4,140(sp)
 2002d98:	d9003817 	ldw	r4,224(sp)
 2002d9c:	45400117 	ldw	r21,4(r8)
 2002da0:	b80f883a 	mov	r7,r23
 2002da4:	d9002415 	stw	r4,144(sp)
 2002da8:	d9002317 	ldw	r4,140(sp)
 2002dac:	1021883a 	mov	r16,r2
 2002db0:	1823883a 	mov	r17,r3
 2002db4:	dd802115 	stw	r22,132(sp)
 2002db8:	ddc02215 	stw	r23,136(sp)
 2002dbc:	200438c0 	call	200438c <__adddf3>
 2002dc0:	180b883a 	mov	r5,r3
 2002dc4:	1009883a 	mov	r4,r2
 2002dc8:	a00d883a 	mov	r6,r20
 2002dcc:	a80f883a 	mov	r7,r21
 2002dd0:	200438c0 	call	200438c <__adddf3>
 2002dd4:	180f883a 	mov	r7,r3
 2002dd8:	8009883a 	mov	r4,r16
 2002ddc:	880b883a 	mov	r5,r17
 2002de0:	100d883a 	mov	r6,r2
 2002de4:	200438c0 	call	200438c <__adddf3>
 2002de8:	180b883a 	mov	r5,r3
 2002dec:	0009883a 	mov	r4,zero
 2002df0:	800d883a 	mov	r6,r16
 2002df4:	880f883a 	mov	r7,r17
 2002df8:	d9001b15 	stw	r4,108(sp)
 2002dfc:	d8c01c15 	stw	r3,112(sp)
 2002e00:	200430c0 	call	200430c <__subdf3>
 2002e04:	180b883a 	mov	r5,r3
 2002e08:	a80f883a 	mov	r7,r21
 2002e0c:	1009883a 	mov	r4,r2
 2002e10:	a00d883a 	mov	r6,r20
 2002e14:	200430c0 	call	200430c <__subdf3>
 2002e18:	d9802317 	ldw	r6,140(sp)
 2002e1c:	d9c03817 	ldw	r7,224(sp)
 2002e20:	180b883a 	mov	r5,r3
 2002e24:	1009883a 	mov	r4,r2
 2002e28:	200430c0 	call	200430c <__subdf3>
 2002e2c:	d9002117 	ldw	r4,132(sp)
 2002e30:	1011883a 	mov	r8,r2
 2002e34:	1813883a 	mov	r9,r3
 2002e38:	b80b883a 	mov	r5,r23
 2002e3c:	480f883a 	mov	r7,r9
 2002e40:	400d883a 	mov	r6,r8
 2002e44:	200430c0 	call	200430c <__subdf3>
 2002e48:	1823883a 	mov	r17,r3
 2002e4c:	d8c02517 	ldw	r3,148(sp)
 2002e50:	1021883a 	mov	r16,r2
 2002e54:	e0bfffc4 	addi	r2,fp,-1
 2002e58:	1884b03a 	or	r2,r3,r2
 2002e5c:	1000731e 	bne	r2,zero,200302c <__ieee754_pow+0xb88>
 2002e60:	0009883a 	mov	r4,zero
 2002e64:	016ffc34 	movhi	r5,49136
 2002e68:	d9001915 	stw	r4,100(sp)
 2002e6c:	d9401a15 	stw	r5,104(sp)
 2002e70:	d9402917 	ldw	r5,164(sp)
 2002e74:	d9002817 	ldw	r4,160(sp)
 2002e78:	0029883a 	mov	r20,zero
 2002e7c:	a00d883a 	mov	r6,r20
 2002e80:	280f883a 	mov	r7,r5
 2002e84:	2827883a 	mov	r19,r5
 2002e88:	200430c0 	call	200430c <__subdf3>
 2002e8c:	d9001b17 	ldw	r4,108(sp)
 2002e90:	d9401c17 	ldw	r5,112(sp)
 2002e94:	180f883a 	mov	r7,r3
 2002e98:	100d883a 	mov	r6,r2
 2002e9c:	20044000 	call	2004400 <__muldf3>
 2002ea0:	d9c02917 	ldw	r7,164(sp)
 2002ea4:	d9802817 	ldw	r6,160(sp)
 2002ea8:	880b883a 	mov	r5,r17
 2002eac:	8009883a 	mov	r4,r16
 2002eb0:	1823883a 	mov	r17,r3
 2002eb4:	1021883a 	mov	r16,r2
 2002eb8:	20044000 	call	2004400 <__muldf3>
 2002ebc:	180f883a 	mov	r7,r3
 2002ec0:	880b883a 	mov	r5,r17
 2002ec4:	8009883a 	mov	r4,r16
 2002ec8:	100d883a 	mov	r6,r2
 2002ecc:	200438c0 	call	200438c <__adddf3>
 2002ed0:	d9401c17 	ldw	r5,112(sp)
 2002ed4:	d9001b17 	ldw	r4,108(sp)
 2002ed8:	a00d883a 	mov	r6,r20
 2002edc:	980f883a 	mov	r7,r19
 2002ee0:	1029883a 	mov	r20,r2
 2002ee4:	182b883a 	mov	r21,r3
 2002ee8:	20044000 	call	2004400 <__muldf3>
 2002eec:	1025883a 	mov	r18,r2
 2002ef0:	1827883a 	mov	r19,r3
 2002ef4:	a009883a 	mov	r4,r20
 2002ef8:	a80b883a 	mov	r5,r21
 2002efc:	900d883a 	mov	r6,r18
 2002f00:	980f883a 	mov	r7,r19
 2002f04:	dd001d15 	stw	r20,116(sp)
 2002f08:	dc801f15 	stw	r18,124(sp)
 2002f0c:	dd401e15 	stw	r21,120(sp)
 2002f10:	dcc02015 	stw	r19,128(sp)
 2002f14:	200438c0 	call	200438c <__adddf3>
 2002f18:	1823883a 	mov	r17,r3
 2002f1c:	01102434 	movhi	r4,16528
 2002f20:	213fffc4 	addi	r4,r4,-1
 2002f24:	1021883a 	mov	r16,r2
 2002f28:	182f883a 	mov	r23,r3
 2002f2c:	dc401815 	stw	r17,96(sp)
 2002f30:	100b883a 	mov	r5,r2
 2002f34:	20c02c0e 	bge	r4,r3,2002fe8 <__ieee754_pow+0xb44>
 2002f38:	00afdc34 	movhi	r2,49008
 2002f3c:	1885883a 	add	r2,r3,r2
 2002f40:	2884b03a 	or	r2,r5,r2
 2002f44:	1001a626 	beq	r2,zero,20035e0 <__ieee754_pow+0x113c>
 2002f48:	04220034 	movhi	r16,34816
 2002f4c:	841d6704 	addi	r16,r16,30108
 2002f50:	045f8e34 	movhi	r17,32312
 2002f54:	8c790f04 	addi	r17,r17,-7108
 2002f58:	d9401a17 	ldw	r5,104(sp)
 2002f5c:	d9001917 	ldw	r4,100(sp)
 2002f60:	800d883a 	mov	r6,r16
 2002f64:	880f883a 	mov	r7,r17
 2002f68:	20044000 	call	2004400 <__muldf3>
 2002f6c:	180b883a 	mov	r5,r3
 2002f70:	800d883a 	mov	r6,r16
 2002f74:	880f883a 	mov	r7,r17
 2002f78:	1009883a 	mov	r4,r2
 2002f7c:	20044000 	call	2004400 <__muldf3>
 2002f80:	003dc306 	br	2002690 <__ieee754_pow+0x1ec>
 2002f84:	00b00434 	movhi	r2,49168
 2002f88:	9085883a 	add	r2,r18,r2
 2002f8c:	e084b03a 	or	r2,fp,r2
 2002f90:	1000af1e 	bne	r2,zero,2003250 <__ieee754_pow+0xdac>
 2002f94:	480f883a 	mov	r7,r9
 2002f98:	4009883a 	mov	r4,r8
 2002f9c:	480b883a 	mov	r5,r9
 2002fa0:	400d883a 	mov	r6,r8
 2002fa4:	003db406 	br	2002678 <__ieee754_pow+0x1d4>
 2002fa8:	00bffc34 	movhi	r2,65520
 2002fac:	18ff0084 	addi	r3,r3,-1022
 2002fb0:	a0a9883a 	add	r20,r20,r2
 2002fb4:	d8c00015 	stw	r3,0(sp)
 2002fb8:	0009883a 	mov	r4,zero
 2002fbc:	04000234 	movhi	r16,8
 2002fc0:	003e1406 	br	2002814 <__ieee754_pow+0x370>
 2002fc4:	a80f883a 	mov	r7,r21
 2002fc8:	a009883a 	mov	r4,r20
 2002fcc:	a80b883a 	mov	r5,r21
 2002fd0:	a00d883a 	mov	r6,r20
 2002fd4:	20044000 	call	2004400 <__muldf3>
 2002fd8:	180b883a 	mov	r5,r3
 2002fdc:	d8802815 	stw	r2,160(sp)
 2002fe0:	d9402915 	stw	r5,164(sp)
 2002fe4:	003d5606 	br	2002540 <__ieee754_pow+0x9c>
 2002fe8:	d9001817 	ldw	r4,96(sp)
 2002fec:	00a00034 	movhi	r2,32768
 2002ff0:	10bfffc4 	addi	r2,r2,-1
 2002ff4:	00d02474 	movhi	r3,16529
 2002ff8:	18f2ffc4 	addi	r3,r3,-13313
 2002ffc:	20b8703a 	and	fp,r4,r2
 2003000:	1f009d0e 	bge	r3,fp,2003278 <__ieee754_pow+0xdd4>
 2003004:	008fdbf4 	movhi	r2,16239
 2003008:	108d0004 	addi	r2,r2,13312
 200300c:	2085883a 	add	r2,r4,r2
 2003010:	1144b03a 	or	r2,r2,r5
 2003014:	1001c626 	beq	r2,zero,2003730 <__ieee754_pow+0x128c>
 2003018:	0430be74 	movhi	r16,49913
 200301c:	843cd644 	addi	r16,r16,-3239
 2003020:	04406974 	movhi	r17,421
 2003024:	8c5b87c4 	addi	r17,r17,28191
 2003028:	003fcb06 	br	2002f58 <__ieee754_pow+0xab4>
 200302c:	0005883a 	mov	r2,zero
 2003030:	00cffc34 	movhi	r3,16368
 2003034:	d8801915 	stw	r2,100(sp)
 2003038:	d8c01a15 	stw	r3,104(sp)
 200303c:	003f8c06 	br	2002e70 <__ieee754_pow+0x9cc>
 2003040:	0005883a 	mov	r2,zero
 2003044:	00cffc34 	movhi	r3,16368
 2003048:	180b883a 	mov	r5,r3
 200304c:	580f883a 	mov	r7,r11
 2003050:	1009883a 	mov	r4,r2
 2003054:	500d883a 	mov	r6,r10
 2003058:	20047c40 	call	20047c4 <__divdf3>
 200305c:	1011883a 	mov	r8,r2
 2003060:	1813883a 	mov	r9,r3
 2003064:	003d9506 	br	20026bc <__ieee754_pow+0x218>
 2003068:	008ffc34 	movhi	r2,16368
 200306c:	10bfff84 	addi	r2,r2,-2
 2003070:	14bdbb0e 	bge	r2,r18,2002760 <__ieee754_pow+0x2bc>
 2003074:	008ffc34 	movhi	r2,16368
 2003078:	14bdae16 	blt	r2,r18,2002734 <__ieee754_pow+0x290>
 200307c:	580b883a 	mov	r5,r11
 2003080:	5009883a 	mov	r4,r10
 2003084:	000d883a 	mov	r6,zero
 2003088:	100f883a 	mov	r7,r2
 200308c:	200430c0 	call	200430c <__subdf3>
 2003090:	1021883a 	mov	r16,r2
 2003094:	1823883a 	mov	r17,r3
 2003098:	00980034 	movhi	r2,24576
 200309c:	00cffdf4 	movhi	r3,16375
 20030a0:	18c551c4 	addi	r3,r3,5447
 20030a4:	8009883a 	mov	r4,r16
 20030a8:	880b883a 	mov	r5,r17
 20030ac:	180f883a 	mov	r7,r3
 20030b0:	100d883a 	mov	r6,r2
 20030b4:	20044000 	call	2004400 <__muldf3>
 20030b8:	023e17b4 	movhi	r8,63582
 20030bc:	4237d104 	addi	r8,r8,-8380
 20030c0:	024f9574 	movhi	r9,15957
 20030c4:	4a6b82c4 	addi	r9,r9,-20981
 20030c8:	480f883a 	mov	r7,r9
 20030cc:	400d883a 	mov	r6,r8
 20030d0:	8009883a 	mov	r4,r16
 20030d4:	880b883a 	mov	r5,r17
 20030d8:	102d883a 	mov	r22,r2
 20030dc:	182f883a 	mov	r23,r3
 20030e0:	20044000 	call	2004400 <__muldf3>
 20030e4:	8009883a 	mov	r4,r16
 20030e8:	880b883a 	mov	r5,r17
 20030ec:	800d883a 	mov	r6,r16
 20030f0:	880f883a 	mov	r7,r17
 20030f4:	d8802a15 	stw	r2,168(sp)
 20030f8:	d8c02b15 	stw	r3,172(sp)
 20030fc:	20044000 	call	2004400 <__muldf3>
 2003100:	0011883a 	mov	r8,zero
 2003104:	026ff434 	movhi	r9,49104
 2003108:	480f883a 	mov	r7,r9
 200310c:	8009883a 	mov	r4,r16
 2003110:	880b883a 	mov	r5,r17
 2003114:	400d883a 	mov	r6,r8
 2003118:	1029883a 	mov	r20,r2
 200311c:	182b883a 	mov	r21,r3
 2003120:	20044000 	call	2004400 <__muldf3>
 2003124:	02155574 	movhi	r8,21845
 2003128:	42155544 	addi	r8,r8,21845
 200312c:	024ff574 	movhi	r9,16341
 2003130:	4a555544 	addi	r9,r9,21845
 2003134:	480f883a 	mov	r7,r9
 2003138:	400d883a 	mov	r6,r8
 200313c:	180b883a 	mov	r5,r3
 2003140:	1009883a 	mov	r4,r2
 2003144:	200438c0 	call	200438c <__adddf3>
 2003148:	180f883a 	mov	r7,r3
 200314c:	8009883a 	mov	r4,r16
 2003150:	880b883a 	mov	r5,r17
 2003154:	100d883a 	mov	r6,r2
 2003158:	20044000 	call	2004400 <__muldf3>
 200315c:	0011883a 	mov	r8,zero
 2003160:	024ff834 	movhi	r9,16352
 2003164:	480b883a 	mov	r5,r9
 2003168:	4009883a 	mov	r4,r8
 200316c:	180f883a 	mov	r7,r3
 2003170:	100d883a 	mov	r6,r2
 2003174:	200430c0 	call	200430c <__subdf3>
 2003178:	180f883a 	mov	r7,r3
 200317c:	a80b883a 	mov	r5,r21
 2003180:	a009883a 	mov	r4,r20
 2003184:	100d883a 	mov	r6,r2
 2003188:	20044000 	call	2004400 <__muldf3>
 200318c:	02194b34 	movhi	r8,25900
 2003190:	4220bf84 	addi	r8,r8,-32002
 2003194:	026ffdf4 	movhi	r9,49143
 2003198:	4a4551c4 	addi	r9,r9,5447
 200319c:	480f883a 	mov	r7,r9
 20031a0:	400d883a 	mov	r6,r8
 20031a4:	180b883a 	mov	r5,r3
 20031a8:	1009883a 	mov	r4,r2
 20031ac:	20044000 	call	2004400 <__muldf3>
 20031b0:	d9402b17 	ldw	r5,172(sp)
 20031b4:	d9002a17 	ldw	r4,168(sp)
 20031b8:	180f883a 	mov	r7,r3
 20031bc:	100d883a 	mov	r6,r2
 20031c0:	200438c0 	call	200438c <__adddf3>
 20031c4:	100d883a 	mov	r6,r2
 20031c8:	b009883a 	mov	r4,r22
 20031cc:	b80b883a 	mov	r5,r23
 20031d0:	180f883a 	mov	r7,r3
 20031d4:	1021883a 	mov	r16,r2
 20031d8:	1823883a 	mov	r17,r3
 20031dc:	200438c0 	call	200438c <__adddf3>
 20031e0:	180b883a 	mov	r5,r3
 20031e4:	0009883a 	mov	r4,zero
 20031e8:	b00d883a 	mov	r6,r22
 20031ec:	b80f883a 	mov	r7,r23
 20031f0:	d9001b15 	stw	r4,108(sp)
 20031f4:	d8c01c15 	stw	r3,112(sp)
 20031f8:	200430c0 	call	200430c <__subdf3>
 20031fc:	1011883a 	mov	r8,r2
 2003200:	1813883a 	mov	r9,r3
 2003204:	8009883a 	mov	r4,r16
 2003208:	880b883a 	mov	r5,r17
 200320c:	003f0b06 	br	2002e3c <__ieee754_pow+0x998>
 2003210:	0005883a 	mov	r2,zero
 2003214:	00d0d034 	movhi	r3,17216
 2003218:	580b883a 	mov	r5,r11
 200321c:	5009883a 	mov	r4,r10
 2003220:	180f883a 	mov	r7,r3
 2003224:	100d883a 	mov	r6,r2
 2003228:	20044000 	call	2004400 <__muldf3>
 200322c:	1015883a 	mov	r10,r2
 2003230:	1825883a 	mov	r18,r3
 2003234:	017ff2c4 	movi	r5,-53
 2003238:	003d6606 	br	20027d4 <__ieee754_pow+0x330>
 200323c:	b03d300e 	bge	r22,zero,2002700 <__ieee754_pow+0x25c>
 2003240:	d9402917 	ldw	r5,164(sp)
 2003244:	28e0003c 	xorhi	r3,r5,32768
 2003248:	d8c02915 	stw	r3,164(sp)
 200324c:	003cbc06 	br	2002540 <__ieee754_pow+0x9c>
 2003250:	00800044 	movi	r2,1
 2003254:	e0bd1a1e 	bne	fp,r2,20026c0 <__ieee754_pow+0x21c>
 2003258:	48e0003c 	xorhi	r3,r9,32768
 200325c:	da002815 	stw	r8,160(sp)
 2003260:	d8c02915 	stw	r3,164(sp)
 2003264:	003cb606 	br	2002540 <__ieee754_pow+0x9c>
 2003268:	d9001817 	ldw	r4,96(sp)
 200326c:	00a00034 	movhi	r2,32768
 2003270:	10bfffc4 	addi	r2,r2,-1
 2003274:	20b8703a 	and	fp,r4,r2
 2003278:	008ff834 	movhi	r2,16352
 200327c:	1700fc16 	blt	r2,fp,2003670 <__ieee754_pow+0x11cc>
 2003280:	0039883a 	mov	fp,zero
 2003284:	d8001315 	stw	zero,76(sp)
 2003288:	0025883a 	mov	r18,zero
 200328c:	0005883a 	mov	r2,zero
 2003290:	00cff9b4 	movhi	r3,16358
 2003294:	18cb90c4 	addi	r3,r3,11843
 2003298:	9009883a 	mov	r4,r18
 200329c:	b80b883a 	mov	r5,r23
 20032a0:	180f883a 	mov	r7,r3
 20032a4:	100d883a 	mov	r6,r2
 20032a8:	20044000 	call	2004400 <__muldf3>
 20032ac:	d9c02017 	ldw	r7,128(sp)
 20032b0:	d9801f17 	ldw	r6,124(sp)
 20032b4:	9009883a 	mov	r4,r18
 20032b8:	b80b883a 	mov	r5,r23
 20032bc:	b823883a 	mov	r17,r23
 20032c0:	102d883a 	mov	r22,r2
 20032c4:	182f883a 	mov	r23,r3
 20032c8:	200430c0 	call	200430c <__subdf3>
 20032cc:	d9401e17 	ldw	r5,120(sp)
 20032d0:	d9001d17 	ldw	r4,116(sp)
 20032d4:	180f883a 	mov	r7,r3
 20032d8:	100d883a 	mov	r6,r2
 20032dc:	200430c0 	call	200430c <__subdf3>
 20032e0:	023fbeb4 	movhi	r8,65274
 20032e4:	420e7bc4 	addi	r8,r8,14831
 20032e8:	024ff9b4 	movhi	r9,16358
 20032ec:	4a4b9084 	addi	r9,r9,11842
 20032f0:	480f883a 	mov	r7,r9
 20032f4:	400d883a 	mov	r6,r8
 20032f8:	180b883a 	mov	r5,r3
 20032fc:	1009883a 	mov	r4,r2
 2003300:	20044000 	call	2004400 <__muldf3>
 2003304:	02032a34 	movhi	r8,3240
 2003308:	421b0e44 	addi	r8,r8,27705
 200330c:	026f8834 	movhi	r9,48672
 2003310:	4a571844 	addi	r9,r9,23649
 2003314:	480f883a 	mov	r7,r9
 2003318:	400d883a 	mov	r6,r8
 200331c:	9009883a 	mov	r4,r18
 2003320:	880b883a 	mov	r5,r17
 2003324:	1021883a 	mov	r16,r2
 2003328:	1823883a 	mov	r17,r3
 200332c:	20044000 	call	2004400 <__muldf3>
 2003330:	180f883a 	mov	r7,r3
 2003334:	880b883a 	mov	r5,r17
 2003338:	8009883a 	mov	r4,r16
 200333c:	100d883a 	mov	r6,r2
 2003340:	200438c0 	call	200438c <__adddf3>
 2003344:	100d883a 	mov	r6,r2
 2003348:	b009883a 	mov	r4,r22
 200334c:	b80b883a 	mov	r5,r23
 2003350:	180f883a 	mov	r7,r3
 2003354:	1021883a 	mov	r16,r2
 2003358:	1823883a 	mov	r17,r3
 200335c:	200438c0 	call	200438c <__adddf3>
 2003360:	1009883a 	mov	r4,r2
 2003364:	180b883a 	mov	r5,r3
 2003368:	b00d883a 	mov	r6,r22
 200336c:	b80f883a 	mov	r7,r23
 2003370:	d8803915 	stw	r2,228(sp)
 2003374:	d8c03a15 	stw	r3,232(sp)
 2003378:	d8801115 	stw	r2,68(sp)
 200337c:	d8c01215 	stw	r3,72(sp)
 2003380:	200430c0 	call	200430c <__subdf3>
 2003384:	180f883a 	mov	r7,r3
 2003388:	8009883a 	mov	r4,r16
 200338c:	880b883a 	mov	r5,r17
 2003390:	100d883a 	mov	r6,r2
 2003394:	200430c0 	call	200430c <__subdf3>
 2003398:	d9001117 	ldw	r4,68(sp)
 200339c:	d9403a17 	ldw	r5,232(sp)
 20033a0:	1029883a 	mov	r20,r2
 20033a4:	200d883a 	mov	r6,r4
 20033a8:	280f883a 	mov	r7,r5
 20033ac:	182b883a 	mov	r21,r3
 20033b0:	20044000 	call	2004400 <__muldf3>
 20033b4:	1021883a 	mov	r16,r2
 20033b8:	1823883a 	mov	r17,r3
 20033bc:	009caff4 	movhi	r2,29375
 20033c0:	10a93404 	addi	r2,r2,-23344
 20033c4:	00cf99b4 	movhi	r3,15974
 20033c8:	18cdda44 	addi	r3,r3,14185
 20033cc:	8009883a 	mov	r4,r16
 20033d0:	880b883a 	mov	r5,r17
 20033d4:	180f883a 	mov	r7,r3
 20033d8:	100d883a 	mov	r6,r2
 20033dc:	20044000 	call	2004400 <__muldf3>
 20033e0:	023174b4 	movhi	r8,50642
 20033e4:	421afc44 	addi	r8,r8,27633
 20033e8:	024faf34 	movhi	r9,16060
 20033ec:	4a6f5044 	addi	r9,r9,-17087
 20033f0:	480f883a 	mov	r7,r9
 20033f4:	400d883a 	mov	r6,r8
 20033f8:	180b883a 	mov	r5,r3
 20033fc:	1009883a 	mov	r4,r2
 2003400:	200430c0 	call	200430c <__subdf3>
 2003404:	180f883a 	mov	r7,r3
 2003408:	8009883a 	mov	r4,r16
 200340c:	880b883a 	mov	r5,r17
 2003410:	100d883a 	mov	r6,r2
 2003414:	20044000 	call	2004400 <__muldf3>
 2003418:	022bc9b4 	movhi	r8,44838
 200341c:	42378b04 	addi	r8,r8,-8660
 2003420:	024fc474 	movhi	r9,16145
 2003424:	4a559a84 	addi	r9,r9,22122
 2003428:	480f883a 	mov	r7,r9
 200342c:	400d883a 	mov	r6,r8
 2003430:	180b883a 	mov	r5,r3
 2003434:	1009883a 	mov	r4,r2
 2003438:	200438c0 	call	200438c <__adddf3>
 200343c:	180f883a 	mov	r7,r3
 2003440:	8009883a 	mov	r4,r16
 2003444:	880b883a 	mov	r5,r17
 2003448:	100d883a 	mov	r6,r2
 200344c:	20044000 	call	2004400 <__muldf3>
 2003450:	0205aff4 	movhi	r8,5823
 2003454:	422f64c4 	addi	r8,r8,-17005
 2003458:	024fd9f4 	movhi	r9,16231
 200345c:	4a705b04 	addi	r9,r9,-16020
 2003460:	480f883a 	mov	r7,r9
 2003464:	400d883a 	mov	r6,r8
 2003468:	180b883a 	mov	r5,r3
 200346c:	1009883a 	mov	r4,r2
 2003470:	200430c0 	call	200430c <__subdf3>
 2003474:	180f883a 	mov	r7,r3
 2003478:	8009883a 	mov	r4,r16
 200347c:	880b883a 	mov	r5,r17
 2003480:	100d883a 	mov	r6,r2
 2003484:	20044000 	call	2004400 <__muldf3>
 2003488:	02155574 	movhi	r8,21845
 200348c:	42154f84 	addi	r8,r8,21822
 2003490:	024ff174 	movhi	r9,16325
 2003494:	4a555544 	addi	r9,r9,21845
 2003498:	480f883a 	mov	r7,r9
 200349c:	400d883a 	mov	r6,r8
 20034a0:	180b883a 	mov	r5,r3
 20034a4:	1009883a 	mov	r4,r2
 20034a8:	200438c0 	call	200438c <__adddf3>
 20034ac:	180f883a 	mov	r7,r3
 20034b0:	8009883a 	mov	r4,r16
 20034b4:	880b883a 	mov	r5,r17
 20034b8:	100d883a 	mov	r6,r2
 20034bc:	20044000 	call	2004400 <__muldf3>
 20034c0:	d9001117 	ldw	r4,68(sp)
 20034c4:	d9403a17 	ldw	r5,232(sp)
 20034c8:	180f883a 	mov	r7,r3
 20034cc:	100d883a 	mov	r6,r2
 20034d0:	200430c0 	call	200430c <__subdf3>
 20034d4:	d9001117 	ldw	r4,68(sp)
 20034d8:	d9403a17 	ldw	r5,232(sp)
 20034dc:	100d883a 	mov	r6,r2
 20034e0:	180f883a 	mov	r7,r3
 20034e4:	1021883a 	mov	r16,r2
 20034e8:	1823883a 	mov	r17,r3
 20034ec:	20044000 	call	2004400 <__muldf3>
 20034f0:	0011883a 	mov	r8,zero
 20034f4:	02500034 	movhi	r9,16384
 20034f8:	480f883a 	mov	r7,r9
 20034fc:	400d883a 	mov	r6,r8
 2003500:	8009883a 	mov	r4,r16
 2003504:	880b883a 	mov	r5,r17
 2003508:	1021883a 	mov	r16,r2
 200350c:	1823883a 	mov	r17,r3
 2003510:	200430c0 	call	200430c <__subdf3>
 2003514:	180f883a 	mov	r7,r3
 2003518:	880b883a 	mov	r5,r17
 200351c:	8009883a 	mov	r4,r16
 2003520:	100d883a 	mov	r6,r2
 2003524:	20047c40 	call	20047c4 <__divdf3>
 2003528:	d9001117 	ldw	r4,68(sp)
 200352c:	d9403a17 	ldw	r5,232(sp)
 2003530:	a00d883a 	mov	r6,r20
 2003534:	a80f883a 	mov	r7,r21
 2003538:	1025883a 	mov	r18,r2
 200353c:	1827883a 	mov	r19,r3
 2003540:	20044000 	call	2004400 <__muldf3>
 2003544:	180f883a 	mov	r7,r3
 2003548:	a009883a 	mov	r4,r20
 200354c:	a80b883a 	mov	r5,r21
 2003550:	100d883a 	mov	r6,r2
 2003554:	200438c0 	call	200438c <__adddf3>
 2003558:	180f883a 	mov	r7,r3
 200355c:	980b883a 	mov	r5,r19
 2003560:	9009883a 	mov	r4,r18
 2003564:	100d883a 	mov	r6,r2
 2003568:	200430c0 	call	200430c <__subdf3>
 200356c:	d9801117 	ldw	r6,68(sp)
 2003570:	d9c03a17 	ldw	r7,232(sp)
 2003574:	180b883a 	mov	r5,r3
 2003578:	1009883a 	mov	r4,r2
 200357c:	200430c0 	call	200430c <__subdf3>
 2003580:	0011883a 	mov	r8,zero
 2003584:	024ffc34 	movhi	r9,16368
 2003588:	480b883a 	mov	r5,r9
 200358c:	180f883a 	mov	r7,r3
 2003590:	4009883a 	mov	r4,r8
 2003594:	100d883a 	mov	r6,r2
 2003598:	200430c0 	call	200430c <__subdf3>
 200359c:	100b883a 	mov	r5,r2
 20035a0:	d8801317 	ldw	r2,76(sp)
 20035a4:	10d5883a 	add	r10,r2,r3
 20035a8:	5005d53a 	srai	r2,r10,20
 20035ac:	0080720e 	bge	zero,r2,2003778 <__ieee754_pow+0x12d4>
 20035b0:	2811883a 	mov	r8,r5
 20035b4:	5013883a 	mov	r9,r10
 20035b8:	d9c01a17 	ldw	r7,104(sp)
 20035bc:	d9801917 	ldw	r6,100(sp)
 20035c0:	480b883a 	mov	r5,r9
 20035c4:	4009883a 	mov	r4,r8
 20035c8:	003e8206 	br	2002fd4 <__ieee754_pow+0xb30>
 20035cc:	0009883a 	mov	r4,zero
 20035d0:	800b883a 	mov	r5,r16
 20035d4:	a80f883a 	mov	r7,r21
 20035d8:	a00d883a 	mov	r6,r20
 20035dc:	003c2b06 	br	200268c <__ieee754_pow+0x1e8>
 20035e0:	d9001d17 	ldw	r4,116(sp)
 20035e4:	00994b34 	movhi	r2,25900
 20035e8:	10a0bf84 	addi	r2,r2,-32002
 20035ec:	00cf25f4 	movhi	r3,15511
 20035f0:	18c551c4 	addi	r3,r3,5447
 20035f4:	a80b883a 	mov	r5,r21
 20035f8:	180f883a 	mov	r7,r3
 20035fc:	100d883a 	mov	r6,r2
 2003600:	200438c0 	call	200438c <__adddf3>
 2003604:	d9801f17 	ldw	r6,124(sp)
 2003608:	880b883a 	mov	r5,r17
 200360c:	8009883a 	mov	r4,r16
 2003610:	980f883a 	mov	r7,r19
 2003614:	1021883a 	mov	r16,r2
 2003618:	1823883a 	mov	r17,r3
 200361c:	200430c0 	call	200430c <__subdf3>
 2003620:	180f883a 	mov	r7,r3
 2003624:	880b883a 	mov	r5,r17
 2003628:	8009883a 	mov	r4,r16
 200362c:	100d883a 	mov	r6,r2
 2003630:	2004b2c0 	call	2004b2c <__gtdf2>
 2003634:	00bf0c0e 	bge	zero,r2,2003268 <__ieee754_pow+0xdc4>
 2003638:	04220034 	movhi	r16,34816
 200363c:	841d6704 	addi	r16,r16,30108
 2003640:	045f8e34 	movhi	r17,32312
 2003644:	8c790f04 	addi	r17,r17,-7108
 2003648:	d9401a17 	ldw	r5,104(sp)
 200364c:	d9001917 	ldw	r4,100(sp)
 2003650:	800d883a 	mov	r6,r16
 2003654:	880f883a 	mov	r7,r17
 2003658:	20044000 	call	2004400 <__muldf3>
 200365c:	180b883a 	mov	r5,r3
 2003660:	800d883a 	mov	r6,r16
 2003664:	880f883a 	mov	r7,r17
 2003668:	1009883a 	mov	r4,r2
 200366c:	003e5906 	br	2002fd4 <__ieee754_pow+0xb30>
 2003670:	e005d53a 	srai	r2,fp,20
 2003674:	01800434 	movhi	r6,16
 2003678:	d9401817 	ldw	r5,96(sp)
 200367c:	10bf0084 	addi	r2,r2,-1022
 2003680:	308dd83a 	sra	r6,r6,r2
 2003684:	02000434 	movhi	r8,16
 2003688:	423fffc4 	addi	r8,r8,-1
 200368c:	0005883a 	mov	r2,zero
 2003690:	298d883a 	add	r6,r5,r6
 2003694:	318b883a 	add	r5,r6,r6
 2003698:	320e703a 	and	r7,r6,r8
 200369c:	1013883a 	mov	r9,r2
 20036a0:	280ad57a 	srli	r5,r5,21
 20036a4:	d8801817 	ldw	r2,96(sp)
 20036a8:	01000504 	movi	r4,20
 20036ac:	297f0044 	addi	r5,r5,-1023
 20036b0:	4151d83a 	sra	r8,r8,r5
 20036b4:	39c00434 	orhi	r7,r7,16
 20036b8:	2149c83a 	sub	r4,r4,r5
 20036bc:	0210303a 	nor	r8,zero,r8
 20036c0:	3939d83a 	sra	fp,r7,r4
 20036c4:	320e703a 	and	r7,r6,r8
 20036c8:	10002916 	blt	r2,zero,2003770 <__ieee754_pow+0x12cc>
 20036cc:	d9402017 	ldw	r5,128(sp)
 20036d0:	d9001f17 	ldw	r4,124(sp)
 20036d4:	480d883a 	mov	r6,r9
 20036d8:	200430c0 	call	200430c <__subdf3>
 20036dc:	180b883a 	mov	r5,r3
 20036e0:	d9402015 	stw	r5,128(sp)
 20036e4:	280f883a 	mov	r7,r5
 20036e8:	d9001d17 	ldw	r4,116(sp)
 20036ec:	d9401e17 	ldw	r5,120(sp)
 20036f0:	1007883a 	mov	r3,r2
 20036f4:	180d883a 	mov	r6,r3
 20036f8:	d8801f15 	stw	r2,124(sp)
 20036fc:	200438c0 	call	200438c <__adddf3>
 2003700:	180b883a 	mov	r5,r3
 2003704:	e006953a 	slli	r3,fp,20
 2003708:	282f883a 	mov	r23,r5
 200370c:	d8c01315 	stw	r3,76(sp)
 2003710:	003edd06 	br	2003288 <__ieee754_pow+0xde4>
 2003714:	383bc81e 	bne	r7,zero,2002638 <__ieee754_pow+0x194>
 2003718:	28c5c83a 	sub	r2,r5,r3
 200371c:	8087d83a 	sra	r3,r16,r2
 2003720:	1884983a 	sll	r2,r3,r2
 2003724:	80801b26 	beq	r16,r2,2003794 <__ieee754_pow+0x12f0>
 2003728:	0039883a 	mov	fp,zero
 200372c:	003b9d06 	br	20025a4 <__ieee754_pow+0x100>
 2003730:	d9801f17 	ldw	r6,124(sp)
 2003734:	8009883a 	mov	r4,r16
 2003738:	880b883a 	mov	r5,r17
 200373c:	980f883a 	mov	r7,r19
 2003740:	200430c0 	call	200430c <__subdf3>
 2003744:	d9001d17 	ldw	r4,116(sp)
 2003748:	a80b883a 	mov	r5,r21
 200374c:	180f883a 	mov	r7,r3
 2003750:	100d883a 	mov	r6,r2
 2003754:	2004c3c0 	call	2004c3c <__ledf2>
 2003758:	00bfc516 	blt	zero,r2,2003670 <__ieee754_pow+0x11cc>
 200375c:	0430be74 	movhi	r16,49913
 2003760:	843cd644 	addi	r16,r16,-3239
 2003764:	04406974 	movhi	r17,421
 2003768:	8c5b87c4 	addi	r17,r17,28191
 200376c:	003fb606 	br	2003648 <__ieee754_pow+0x11a4>
 2003770:	0739c83a 	sub	fp,zero,fp
 2003774:	003fd506 	br	20036cc <__ieee754_pow+0x1228>
 2003778:	2809883a 	mov	r4,r5
 200377c:	e00d883a 	mov	r6,fp
 2003780:	180b883a 	mov	r5,r3
 2003784:	2003cf80 	call	2003cf8 <scalbn>
 2003788:	1011883a 	mov	r8,r2
 200378c:	1813883a 	mov	r9,r3
 2003790:	003f8906 	br	20035b8 <__ieee754_pow+0x1114>
 2003794:	18c0004c 	andi	r3,r3,1
 2003798:	00800084 	movi	r2,2
 200379c:	10f9c83a 	sub	fp,r2,r3
 20037a0:	003b8006 	br	20025a4 <__ieee754_pow+0x100>

020037a4 <__ieee754_sqrt>:
 20037a4:	defffd04 	addi	sp,sp,-12
 20037a8:	dc000015 	stw	r16,0(sp)
 20037ac:	009ffc34 	movhi	r2,32752
 20037b0:	2021883a 	mov	r16,r4
 20037b4:	291ffc2c 	andhi	r4,r5,32752
 20037b8:	dc400115 	stw	r17,4(sp)
 20037bc:	dfc00215 	stw	ra,8(sp)
 20037c0:	2823883a 	mov	r17,r5
 20037c4:	280f883a 	mov	r7,r5
 20037c8:	2807883a 	mov	r3,r5
 20037cc:	8011883a 	mov	r8,r16
 20037d0:	20807d26 	beq	r4,r2,20039c8 <__ieee754_sqrt+0x224>
 20037d4:	01408d0e 	bge	zero,r5,2003a0c <__ieee754_sqrt+0x268>
 20037d8:	380dd53a 	srai	r6,r7,20
 20037dc:	3000131e 	bne	r6,zero,200382c <__ieee754_sqrt+0x88>
 20037e0:	1800041e 	bne	r3,zero,20037f4 <__ieee754_sqrt+0x50>
 20037e4:	400ed2fa 	srli	r7,r8,11
 20037e8:	31bffac4 	addi	r6,r6,-21
 20037ec:	4010957a 	slli	r8,r8,21
 20037f0:	383ffc26 	beq	r7,zero,20037e4 <__ieee754_sqrt+0x40>
 20037f4:	3880042c 	andhi	r2,r7,16
 20037f8:	1000991e 	bne	r2,zero,2003a60 <__ieee754_sqrt+0x2bc>
 20037fc:	0009883a 	mov	r4,zero
 2003800:	39cf883a 	add	r7,r7,r7
 2003804:	3880042c 	andhi	r2,r7,16
 2003808:	21000044 	addi	r4,r4,1
 200380c:	103ffc26 	beq	r2,zero,2003800 <__ieee754_sqrt+0x5c>
 2003810:	00800804 	movi	r2,32
 2003814:	1105c83a 	sub	r2,r2,r4
 2003818:	4086d83a 	srl	r3,r8,r2
 200381c:	4110983a 	sll	r8,r8,r4
 2003820:	3105c83a 	sub	r2,r6,r4
 2003824:	38ceb03a 	or	r7,r7,r3
 2003828:	11800044 	addi	r6,r2,1
 200382c:	31bf0044 	addi	r6,r6,-1023
 2003830:	30c0004c 	andi	r3,r6,1
 2003834:	00800434 	movhi	r2,16
 2003838:	10bfffc4 	addi	r2,r2,-1
 200383c:	3884703a 	and	r2,r7,r2
 2003840:	1807003a 	cmpeq	r3,r3,zero
 2003844:	11000434 	orhi	r4,r2,16
 2003848:	18005426 	beq	r3,zero,200399c <__ieee754_sqrt+0x1f8>
 200384c:	4004d7fa 	srli	r2,r8,31
 2003850:	4207883a 	add	r3,r8,r8
 2003854:	02800834 	movhi	r10,32
 2003858:	1105883a 	add	r2,r2,r4
 200385c:	2089883a 	add	r4,r4,r2
 2003860:	0011883a 	mov	r8,zero
 2003864:	000b883a 	mov	r5,zero
 2003868:	0013883a 	mov	r9,zero
 200386c:	02c00584 	movi	r11,22
 2003870:	520f883a 	add	r7,r10,r8
 2003874:	1804d7fa 	srli	r2,r3,31
 2003878:	4a400044 	addi	r9,r9,1
 200387c:	18c7883a 	add	r3,r3,r3
 2003880:	21c00316 	blt	r4,r7,2003890 <__ieee754_sqrt+0xec>
 2003884:	21c9c83a 	sub	r4,r4,r7
 2003888:	2a8b883a 	add	r5,r5,r10
 200388c:	51d1883a 	add	r8,r10,r7
 2003890:	1105883a 	add	r2,r2,r4
 2003894:	5014d07a 	srli	r10,r10,1
 2003898:	2089883a 	add	r4,r4,r2
 200389c:	4afff41e 	bne	r9,r11,2003870 <__ieee754_sqrt+0xcc>
 20038a0:	02600034 	movhi	r9,32768
 20038a4:	0017883a 	mov	r11,zero
 20038a8:	0019883a 	mov	r12,zero
 20038ac:	0015883a 	mov	r10,zero
 20038b0:	4821883a 	mov	r16,r9
 20038b4:	03c00804 	movi	r15,32
 20038b8:	00000806 	br	20038dc <__ieee754_sqrt+0x138>
 20038bc:	22003426 	beq	r4,r8,2003990 <__ieee754_sqrt+0x1ec>
 20038c0:	1804d7fa 	srli	r2,r3,31
 20038c4:	52800044 	addi	r10,r10,1
 20038c8:	18c7883a 	add	r3,r3,r3
 20038cc:	1105883a 	add	r2,r2,r4
 20038d0:	2089883a 	add	r4,r4,r2
 20038d4:	4812d07a 	srli	r9,r9,1
 20038d8:	53c01326 	beq	r10,r15,2003928 <__ieee754_sqrt+0x184>
 20038dc:	4acf883a 	add	r7,r9,r11
 20038e0:	413ff60e 	bge	r8,r4,20038bc <__ieee754_sqrt+0x118>
 20038e4:	38a0002c 	andhi	r2,r7,32768
 20038e8:	3a57883a 	add	r11,r7,r9
 20038ec:	14002426 	beq	r2,r16,2003980 <__ieee754_sqrt+0x1dc>
 20038f0:	4005883a 	mov	r2,r8
 20038f4:	2209c83a 	sub	r4,r4,r8
 20038f8:	19c0012e 	bgeu	r3,r7,2003900 <__ieee754_sqrt+0x15c>
 20038fc:	213fffc4 	addi	r4,r4,-1
 2003900:	19c7c83a 	sub	r3,r3,r7
 2003904:	1011883a 	mov	r8,r2
 2003908:	1804d7fa 	srli	r2,r3,31
 200390c:	52800044 	addi	r10,r10,1
 2003910:	6259883a 	add	r12,r12,r9
 2003914:	1105883a 	add	r2,r2,r4
 2003918:	18c7883a 	add	r3,r3,r3
 200391c:	2089883a 	add	r4,r4,r2
 2003920:	4812d07a 	srli	r9,r9,1
 2003924:	53ffed1e 	bne	r10,r15,20038dc <__ieee754_sqrt+0x138>
 2003928:	20c4b03a 	or	r2,r4,r3
 200392c:	1000201e 	bne	r2,zero,20039b0 <__ieee754_sqrt+0x20c>
 2003930:	600ed07a 	srli	r7,r12,1
 2003934:	2880004c 	andi	r2,r5,1
 2003938:	1005003a 	cmpeq	r2,r2,zero
 200393c:	1000011e 	bne	r2,zero,2003944 <__ieee754_sqrt+0x1a0>
 2003940:	39e00034 	orhi	r7,r7,32768
 2003944:	300dd07a 	srai	r6,r6,1
 2003948:	280bd07a 	srai	r5,r5,1
 200394c:	010ff834 	movhi	r4,16352
 2003950:	300c953a 	slli	r6,r6,20
 2003954:	290b883a 	add	r5,r5,r4
 2003958:	3821883a 	mov	r16,r7
 200395c:	299d883a 	add	r14,r5,r6
 2003960:	7023883a 	mov	r17,r14
 2003964:	8005883a 	mov	r2,r16
 2003968:	8807883a 	mov	r3,r17
 200396c:	dfc00217 	ldw	ra,8(sp)
 2003970:	dc400117 	ldw	r17,4(sp)
 2003974:	dc000017 	ldw	r16,0(sp)
 2003978:	dec00304 	addi	sp,sp,12
 200397c:	f800283a 	ret
 2003980:	5884703a 	and	r2,r11,r2
 2003984:	103fda1e 	bne	r2,zero,20038f0 <__ieee754_sqrt+0x14c>
 2003988:	40800044 	addi	r2,r8,1
 200398c:	003fd906 	br	20038f4 <__ieee754_sqrt+0x150>
 2003990:	19ffd42e 	bgeu	r3,r7,20038e4 <__ieee754_sqrt+0x140>
 2003994:	2011883a 	mov	r8,r4
 2003998:	003fc906 	br	20038c0 <__ieee754_sqrt+0x11c>
 200399c:	4004d7fa 	srli	r2,r8,31
 20039a0:	4211883a 	add	r8,r8,r8
 20039a4:	1105883a 	add	r2,r2,r4
 20039a8:	2089883a 	add	r4,r4,r2
 20039ac:	003fa706 	br	200384c <__ieee754_sqrt+0xa8>
 20039b0:	00bfffc4 	movi	r2,-1
 20039b4:	60802726 	beq	r12,r2,2003a54 <__ieee754_sqrt+0x2b0>
 20039b8:	6080004c 	andi	r2,r12,1
 20039bc:	6085883a 	add	r2,r12,r2
 20039c0:	100ed07a 	srli	r7,r2,1
 20039c4:	003fdb06 	br	2003934 <__ieee754_sqrt+0x190>
 20039c8:	8009883a 	mov	r4,r16
 20039cc:	800d883a 	mov	r6,r16
 20039d0:	20044000 	call	2004400 <__muldf3>
 20039d4:	180f883a 	mov	r7,r3
 20039d8:	880b883a 	mov	r5,r17
 20039dc:	8009883a 	mov	r4,r16
 20039e0:	100d883a 	mov	r6,r2
 20039e4:	200438c0 	call	200438c <__adddf3>
 20039e8:	1021883a 	mov	r16,r2
 20039ec:	1823883a 	mov	r17,r3
 20039f0:	8005883a 	mov	r2,r16
 20039f4:	8807883a 	mov	r3,r17
 20039f8:	dfc00217 	ldw	ra,8(sp)
 20039fc:	dc400117 	ldw	r17,4(sp)
 2003a00:	dc000017 	ldw	r16,0(sp)
 2003a04:	dec00304 	addi	sp,sp,12
 2003a08:	f800283a 	ret
 2003a0c:	00a00034 	movhi	r2,32768
 2003a10:	10bfffc4 	addi	r2,r2,-1
 2003a14:	2884703a 	and	r2,r5,r2
 2003a18:	8084b03a 	or	r2,r16,r2
 2003a1c:	103fd126 	beq	r2,zero,2003964 <__ieee754_sqrt+0x1c0>
 2003a20:	283f6d26 	beq	r5,zero,20037d8 <__ieee754_sqrt+0x34>
 2003a24:	280f883a 	mov	r7,r5
 2003a28:	8009883a 	mov	r4,r16
 2003a2c:	800d883a 	mov	r6,r16
 2003a30:	200430c0 	call	200430c <__subdf3>
 2003a34:	1009883a 	mov	r4,r2
 2003a38:	180b883a 	mov	r5,r3
 2003a3c:	100d883a 	mov	r6,r2
 2003a40:	180f883a 	mov	r7,r3
 2003a44:	20047c40 	call	20047c4 <__divdf3>
 2003a48:	1021883a 	mov	r16,r2
 2003a4c:	1823883a 	mov	r17,r3
 2003a50:	003fc406 	br	2003964 <__ieee754_sqrt+0x1c0>
 2003a54:	29400044 	addi	r5,r5,1
 2003a58:	000f883a 	mov	r7,zero
 2003a5c:	003fb506 	br	2003934 <__ieee754_sqrt+0x190>
 2003a60:	0009883a 	mov	r4,zero
 2003a64:	00800804 	movi	r2,32
 2003a68:	003f6b06 	br	2003818 <__ieee754_sqrt+0x74>

02003a6c <fabs>:
 2003a6c:	01e00034 	movhi	r7,32768
 2003a70:	39ffffc4 	addi	r7,r7,-1
 2003a74:	394e703a 	and	r7,r7,r5
 2003a78:	2005883a 	mov	r2,r4
 2003a7c:	3807883a 	mov	r3,r7
 2003a80:	f800283a 	ret

02003a84 <finite>:
 2003a84:	00a00034 	movhi	r2,32768
 2003a88:	10bfffc4 	addi	r2,r2,-1
 2003a8c:	2884703a 	and	r2,r5,r2
 2003a90:	01600434 	movhi	r5,32784
 2003a94:	1145883a 	add	r2,r2,r5
 2003a98:	1004d7fa 	srli	r2,r2,31
 2003a9c:	f800283a 	ret

02003aa0 <__isnand>:
 2003aa0:	200d883a 	mov	r6,r4
 2003aa4:	0109c83a 	sub	r4,zero,r4
 2003aa8:	2188b03a 	or	r4,r4,r6
 2003aac:	2008d7fa 	srli	r4,r4,31
 2003ab0:	00a00034 	movhi	r2,32768
 2003ab4:	10bfffc4 	addi	r2,r2,-1
 2003ab8:	1144703a 	and	r2,r2,r5
 2003abc:	2088b03a 	or	r4,r4,r2
 2003ac0:	009ffc34 	movhi	r2,32752
 2003ac4:	1105c83a 	sub	r2,r2,r4
 2003ac8:	1004d7fa 	srli	r2,r2,31
 2003acc:	f800283a 	ret

02003ad0 <matherr>:
 2003ad0:	0005883a 	mov	r2,zero
 2003ad4:	f800283a 	ret

02003ad8 <nan>:
 2003ad8:	015ffe34 	movhi	r5,32760
 2003adc:	0005883a 	mov	r2,zero
 2003ae0:	2807883a 	mov	r3,r5
 2003ae4:	f800283a 	ret

02003ae8 <rint>:
 2003ae8:	2015883a 	mov	r10,r4
 2003aec:	2809d53a 	srai	r4,r5,20
 2003af0:	defff904 	addi	sp,sp,-28
 2003af4:	034004c4 	movi	r13,19
 2003af8:	2101ffcc 	andi	r4,r4,2047
 2003afc:	227f0044 	addi	r9,r4,-1023
 2003b00:	dc800415 	stw	r18,16(sp)
 2003b04:	dfc00615 	stw	ra,24(sp)
 2003b08:	dcc00515 	stw	r19,20(sp)
 2003b0c:	dc400315 	stw	r17,12(sp)
 2003b10:	dc000215 	stw	r16,8(sp)
 2003b14:	2817883a 	mov	r11,r5
 2003b18:	500d883a 	mov	r6,r10
 2003b1c:	2824d7fa 	srli	r18,r5,31
 2003b20:	6a403016 	blt	r13,r9,2003be4 <rint+0xfc>
 2003b24:	48004916 	blt	r9,zero,2003c4c <rint+0x164>
 2003b28:	00800434 	movhi	r2,16
 2003b2c:	10bfffc4 	addi	r2,r2,-1
 2003b30:	1247d83a 	sra	r3,r2,r9
 2003b34:	2809883a 	mov	r4,r5
 2003b38:	1944703a 	and	r2,r3,r5
 2003b3c:	5084b03a 	or	r2,r10,r2
 2003b40:	10001f26 	beq	r2,zero,2003bc0 <rint+0xd8>
 2003b44:	180ad07a 	srli	r5,r3,1
 2003b48:	5944703a 	and	r2,r11,r5
 2003b4c:	5084b03a 	or	r2,r10,r2
 2003b50:	10000626 	beq	r2,zero,2003b6c <rint+0x84>
 2003b54:	4b406626 	beq	r9,r13,2003cf0 <rint+0x208>
 2003b58:	00c000b4 	movhi	r3,2
 2003b5c:	1a47d83a 	sra	r3,r3,r9
 2003b60:	0144303a 	nor	r2,zero,r5
 2003b64:	5884703a 	and	r2,r11,r2
 2003b68:	10c8b03a 	or	r4,r2,r3
 2003b6c:	900690fa 	slli	r3,r18,3
 2003b70:	00808074 	movhi	r2,513
 2003b74:	10a6f804 	addi	r2,r2,-25632
 2003b78:	200f883a 	mov	r7,r4
 2003b7c:	1887883a 	add	r3,r3,r2
 2003b80:	1c000017 	ldw	r16,0(r3)
 2003b84:	1c400117 	ldw	r17,4(r3)
 2003b88:	8009883a 	mov	r4,r16
 2003b8c:	880b883a 	mov	r5,r17
 2003b90:	200438c0 	call	200438c <__adddf3>
 2003b94:	d8800015 	stw	r2,0(sp)
 2003b98:	d8c00115 	stw	r3,4(sp)
 2003b9c:	d8800017 	ldw	r2,0(sp)
 2003ba0:	d8c00117 	ldw	r3,4(sp)
 2003ba4:	880f883a 	mov	r7,r17
 2003ba8:	800d883a 	mov	r6,r16
 2003bac:	180b883a 	mov	r5,r3
 2003bb0:	1009883a 	mov	r4,r2
 2003bb4:	200430c0 	call	200430c <__subdf3>
 2003bb8:	1015883a 	mov	r10,r2
 2003bbc:	1817883a 	mov	r11,r3
 2003bc0:	5005883a 	mov	r2,r10
 2003bc4:	5807883a 	mov	r3,r11
 2003bc8:	dfc00617 	ldw	ra,24(sp)
 2003bcc:	dcc00517 	ldw	r19,20(sp)
 2003bd0:	dc800417 	ldw	r18,16(sp)
 2003bd4:	dc400317 	ldw	r17,12(sp)
 2003bd8:	dc000217 	ldw	r16,8(sp)
 2003bdc:	dec00704 	addi	sp,sp,28
 2003be0:	f800283a 	ret
 2003be4:	00800cc4 	movi	r2,51
 2003be8:	12400f16 	blt	r2,r9,2003c28 <rint+0x140>
 2003bec:	213efb44 	addi	r4,r4,-1043
 2003bf0:	00bfffc4 	movi	r2,-1
 2003bf4:	1104d83a 	srl	r2,r2,r4
 2003bf8:	5086703a 	and	r3,r10,r2
 2003bfc:	183ff026 	beq	r3,zero,2003bc0 <rint+0xd8>
 2003c00:	100ad07a 	srli	r5,r2,1
 2003c04:	5144703a 	and	r2,r10,r5
 2003c08:	10000526 	beq	r2,zero,2003c20 <rint+0x138>
 2003c0c:	00d00034 	movhi	r3,16384
 2003c10:	1907d83a 	sra	r3,r3,r4
 2003c14:	0144303a 	nor	r2,zero,r5
 2003c18:	5084703a 	and	r2,r10,r2
 2003c1c:	10ccb03a 	or	r6,r2,r3
 2003c20:	5809883a 	mov	r4,r11
 2003c24:	003fd106 	br	2003b6c <rint+0x84>
 2003c28:	00810004 	movi	r2,1024
 2003c2c:	48bfe41e 	bne	r9,r2,2003bc0 <rint+0xd8>
 2003c30:	5009883a 	mov	r4,r10
 2003c34:	500d883a 	mov	r6,r10
 2003c38:	280f883a 	mov	r7,r5
 2003c3c:	200438c0 	call	200438c <__adddf3>
 2003c40:	1015883a 	mov	r10,r2
 2003c44:	1817883a 	mov	r11,r3
 2003c48:	003fdd06 	br	2003bc0 <rint+0xd8>
 2003c4c:	04e00034 	movhi	r19,32768
 2003c50:	9cffffc4 	addi	r19,r19,-1
 2003c54:	2cc4703a 	and	r2,r5,r19
 2003c58:	5084b03a 	or	r2,r10,r2
 2003c5c:	103fd826 	beq	r2,zero,2003bc0 <rint+0xd8>
 2003c60:	00c00434 	movhi	r3,16
 2003c64:	18ffffc4 	addi	r3,r3,-1
 2003c68:	28c6703a 	and	r3,r5,r3
 2003c6c:	50c6b03a 	or	r3,r10,r3
 2003c70:	00cdc83a 	sub	r6,zero,r3
 2003c74:	900a90fa 	slli	r5,r18,3
 2003c78:	1986b03a 	or	r3,r3,r6
 2003c7c:	01008074 	movhi	r4,513
 2003c80:	2126f804 	addi	r4,r4,-25632
 2003c84:	1806d33a 	srli	r3,r3,12
 2003c88:	290b883a 	add	r5,r5,r4
 2003c8c:	2c000017 	ldw	r16,0(r5)
 2003c90:	2c400117 	ldw	r17,4(r5)
 2003c94:	593fffac 	andhi	r4,r11,65534
 2003c98:	18c0022c 	andhi	r3,r3,8
 2003c9c:	1906b03a 	or	r3,r3,r4
 2003ca0:	500d883a 	mov	r6,r10
 2003ca4:	180f883a 	mov	r7,r3
 2003ca8:	8009883a 	mov	r4,r16
 2003cac:	880b883a 	mov	r5,r17
 2003cb0:	200438c0 	call	200438c <__adddf3>
 2003cb4:	d8800015 	stw	r2,0(sp)
 2003cb8:	d8c00115 	stw	r3,4(sp)
 2003cbc:	d8800017 	ldw	r2,0(sp)
 2003cc0:	d8c00117 	ldw	r3,4(sp)
 2003cc4:	880f883a 	mov	r7,r17
 2003cc8:	800d883a 	mov	r6,r16
 2003ccc:	180b883a 	mov	r5,r3
 2003cd0:	1009883a 	mov	r4,r2
 2003cd4:	200430c0 	call	200430c <__subdf3>
 2003cd8:	901297fa 	slli	r9,r18,31
 2003cdc:	98d0703a 	and	r8,r19,r3
 2003ce0:	1015883a 	mov	r10,r2
 2003ce4:	4250b03a 	or	r8,r8,r9
 2003ce8:	4017883a 	mov	r11,r8
 2003cec:	003fb406 	br	2003bc0 <rint+0xd8>
 2003cf0:	01900034 	movhi	r6,16384
 2003cf4:	003f9d06 	br	2003b6c <rint+0x84>

02003cf8 <scalbn>:
 2003cf8:	2011883a 	mov	r8,r4
 2003cfc:	291ffc2c 	andhi	r4,r5,32752
 2003d00:	2009d53a 	srai	r4,r4,20
 2003d04:	defffd04 	addi	sp,sp,-12
 2003d08:	dc000015 	stw	r16,0(sp)
 2003d0c:	dfc00215 	stw	ra,8(sp)
 2003d10:	dc400115 	stw	r17,4(sp)
 2003d14:	2813883a 	mov	r9,r5
 2003d18:	2815883a 	mov	r10,r5
 2003d1c:	3021883a 	mov	r16,r6
 2003d20:	2000281e 	bne	r4,zero,2003dc4 <scalbn+0xcc>
 2003d24:	00a00034 	movhi	r2,32768
 2003d28:	10bfffc4 	addi	r2,r2,-1
 2003d2c:	2884703a 	and	r2,r5,r2
 2003d30:	4084b03a 	or	r2,r8,r2
 2003d34:	10001826 	beq	r2,zero,2003d98 <scalbn+0xa0>
 2003d38:	0005883a 	mov	r2,zero
 2003d3c:	00d0d434 	movhi	r3,17232
 2003d40:	4009883a 	mov	r4,r8
 2003d44:	100d883a 	mov	r6,r2
 2003d48:	180f883a 	mov	r7,r3
 2003d4c:	20044000 	call	2004400 <__muldf3>
 2003d50:	100b883a 	mov	r5,r2
 2003d54:	1011883a 	mov	r8,r2
 2003d58:	00bffff4 	movhi	r2,65535
 2003d5c:	108f2c04 	addi	r2,r2,15536
 2003d60:	180d883a 	mov	r6,r3
 2003d64:	1813883a 	mov	r9,r3
 2003d68:	8080120e 	bge	r16,r2,2003db4 <scalbn+0xbc>
 2003d6c:	00b0be74 	movhi	r2,49913
 2003d70:	10bcd644 	addi	r2,r2,-3239
 2003d74:	00c06974 	movhi	r3,421
 2003d78:	18db87c4 	addi	r3,r3,28191
 2003d7c:	2809883a 	mov	r4,r5
 2003d80:	180f883a 	mov	r7,r3
 2003d84:	300b883a 	mov	r5,r6
 2003d88:	100d883a 	mov	r6,r2
 2003d8c:	20044000 	call	2004400 <__muldf3>
 2003d90:	1011883a 	mov	r8,r2
 2003d94:	1813883a 	mov	r9,r3
 2003d98:	4005883a 	mov	r2,r8
 2003d9c:	4807883a 	mov	r3,r9
 2003da0:	dfc00217 	ldw	ra,8(sp)
 2003da4:	dc400117 	ldw	r17,4(sp)
 2003da8:	dc000017 	ldw	r16,0(sp)
 2003dac:	dec00304 	addi	sp,sp,12
 2003db0:	f800283a 	ret
 2003db4:	189ffc2c 	andhi	r2,r3,32752
 2003db8:	1005d53a 	srai	r2,r2,20
 2003dbc:	1815883a 	mov	r10,r3
 2003dc0:	113ff284 	addi	r4,r2,-54
 2003dc4:	0081ffc4 	movi	r2,2047
 2003dc8:	20801126 	beq	r4,r2,2003e10 <scalbn+0x118>
 2003dcc:	2409883a 	add	r4,r4,r16
 2003dd0:	0081ff84 	movi	r2,2046
 2003dd4:	11001c16 	blt	r2,r4,2003e48 <scalbn+0x150>
 2003dd8:	0100290e 	bge	zero,r4,2003e80 <scalbn+0x188>
 2003ddc:	200a953a 	slli	r5,r4,20
 2003de0:	01200434 	movhi	r4,32784
 2003de4:	213fffc4 	addi	r4,r4,-1
 2003de8:	5108703a 	and	r4,r10,r4
 2003dec:	2148b03a 	or	r4,r4,r5
 2003df0:	2013883a 	mov	r9,r4
 2003df4:	4005883a 	mov	r2,r8
 2003df8:	4807883a 	mov	r3,r9
 2003dfc:	dfc00217 	ldw	ra,8(sp)
 2003e00:	dc400117 	ldw	r17,4(sp)
 2003e04:	dc000017 	ldw	r16,0(sp)
 2003e08:	dec00304 	addi	sp,sp,12
 2003e0c:	f800283a 	ret
 2003e10:	480f883a 	mov	r7,r9
 2003e14:	4009883a 	mov	r4,r8
 2003e18:	480b883a 	mov	r5,r9
 2003e1c:	400d883a 	mov	r6,r8
 2003e20:	200438c0 	call	200438c <__adddf3>
 2003e24:	1011883a 	mov	r8,r2
 2003e28:	1813883a 	mov	r9,r3
 2003e2c:	4005883a 	mov	r2,r8
 2003e30:	4807883a 	mov	r3,r9
 2003e34:	dfc00217 	ldw	ra,8(sp)
 2003e38:	dc400117 	ldw	r17,4(sp)
 2003e3c:	dc000017 	ldw	r16,0(sp)
 2003e40:	dec00304 	addi	sp,sp,12
 2003e44:	f800283a 	ret
 2003e48:	04220034 	movhi	r16,34816
 2003e4c:	841d6704 	addi	r16,r16,30108
 2003e50:	045f8e34 	movhi	r17,32312
 2003e54:	8c790f04 	addi	r17,r17,-7108
 2003e58:	480f883a 	mov	r7,r9
 2003e5c:	400d883a 	mov	r6,r8
 2003e60:	8009883a 	mov	r4,r16
 2003e64:	880b883a 	mov	r5,r17
 2003e68:	2003ed80 	call	2003ed8 <copysign>
 2003e6c:	180b883a 	mov	r5,r3
 2003e70:	800d883a 	mov	r6,r16
 2003e74:	880f883a 	mov	r7,r17
 2003e78:	1009883a 	mov	r4,r2
 2003e7c:	003fc306 	br	2003d8c <scalbn+0x94>
 2003e80:	00bff284 	movi	r2,-54
 2003e84:	11000716 	blt	r2,r4,2003ea4 <scalbn+0x1ac>
 2003e88:	00b0d414 	movui	r2,50000
 2003e8c:	143fee16 	blt	r2,r16,2003e48 <scalbn+0x150>
 2003e90:	0430be74 	movhi	r16,49913
 2003e94:	843cd644 	addi	r16,r16,-3239
 2003e98:	04406974 	movhi	r17,421
 2003e9c:	8c5b87c4 	addi	r17,r17,28191
 2003ea0:	003fed06 	br	2003e58 <scalbn+0x160>
 2003ea4:	21000d84 	addi	r4,r4,54
 2003ea8:	2008953a 	slli	r4,r4,20
 2003eac:	01e00434 	movhi	r7,32784
 2003eb0:	39ffffc4 	addi	r7,r7,-1
 2003eb4:	51ce703a 	and	r7,r10,r7
 2003eb8:	390eb03a 	or	r7,r7,r4
 2003ebc:	024f2434 	movhi	r9,15504
 2003ec0:	4009883a 	mov	r4,r8
 2003ec4:	0011883a 	mov	r8,zero
 2003ec8:	380b883a 	mov	r5,r7
 2003ecc:	400d883a 	mov	r6,r8
 2003ed0:	480f883a 	mov	r7,r9
 2003ed4:	003fad06 	br	2003d8c <scalbn+0x94>

02003ed8 <copysign>:
 2003ed8:	3813883a 	mov	r9,r7
 2003edc:	01e00034 	movhi	r7,32768
 2003ee0:	39ffffc4 	addi	r7,r7,-1
 2003ee4:	394e703a 	and	r7,r7,r5
 2003ee8:	4aa0002c 	andhi	r10,r9,32768
 2003eec:	3a8eb03a 	or	r7,r7,r10
 2003ef0:	2005883a 	mov	r2,r4
 2003ef4:	3807883a 	mov	r3,r7
 2003ef8:	f800283a 	ret

02003efc <_fpadd_parts>:
 2003efc:	defff804 	addi	sp,sp,-32
 2003f00:	dcc00315 	stw	r19,12(sp)
 2003f04:	2027883a 	mov	r19,r4
 2003f08:	21000017 	ldw	r4,0(r4)
 2003f0c:	00c00044 	movi	r3,1
 2003f10:	dd400515 	stw	r21,20(sp)
 2003f14:	dd000415 	stw	r20,16(sp)
 2003f18:	ddc00715 	stw	r23,28(sp)
 2003f1c:	dd800615 	stw	r22,24(sp)
 2003f20:	dc800215 	stw	r18,8(sp)
 2003f24:	dc400115 	stw	r17,4(sp)
 2003f28:	dc000015 	stw	r16,0(sp)
 2003f2c:	282b883a 	mov	r21,r5
 2003f30:	3029883a 	mov	r20,r6
 2003f34:	1900632e 	bgeu	r3,r4,20040c4 <_fpadd_parts+0x1c8>
 2003f38:	28800017 	ldw	r2,0(r5)
 2003f3c:	1880812e 	bgeu	r3,r2,2004144 <_fpadd_parts+0x248>
 2003f40:	00c00104 	movi	r3,4
 2003f44:	20c0dc26 	beq	r4,r3,20042b8 <_fpadd_parts+0x3bc>
 2003f48:	10c07e26 	beq	r2,r3,2004144 <_fpadd_parts+0x248>
 2003f4c:	00c00084 	movi	r3,2
 2003f50:	10c06726 	beq	r2,r3,20040f0 <_fpadd_parts+0x1f4>
 2003f54:	20c07b26 	beq	r4,r3,2004144 <_fpadd_parts+0x248>
 2003f58:	9dc00217 	ldw	r23,8(r19)
 2003f5c:	28c00217 	ldw	r3,8(r5)
 2003f60:	9c400317 	ldw	r17,12(r19)
 2003f64:	2bc00317 	ldw	r15,12(r5)
 2003f68:	b8cdc83a 	sub	r6,r23,r3
 2003f6c:	9c800417 	ldw	r18,16(r19)
 2003f70:	2c000417 	ldw	r16,16(r5)
 2003f74:	3009883a 	mov	r4,r6
 2003f78:	30009716 	blt	r6,zero,20041d8 <_fpadd_parts+0x2dc>
 2003f7c:	00800fc4 	movi	r2,63
 2003f80:	11806b16 	blt	r2,r6,2004130 <_fpadd_parts+0x234>
 2003f84:	0100a40e 	bge	zero,r4,2004218 <_fpadd_parts+0x31c>
 2003f88:	35bff804 	addi	r22,r6,-32
 2003f8c:	b000bc16 	blt	r22,zero,2004280 <_fpadd_parts+0x384>
 2003f90:	8596d83a 	srl	r11,r16,r22
 2003f94:	0019883a 	mov	r12,zero
 2003f98:	0013883a 	mov	r9,zero
 2003f9c:	01000044 	movi	r4,1
 2003fa0:	0015883a 	mov	r10,zero
 2003fa4:	b000be16 	blt	r22,zero,20042a0 <_fpadd_parts+0x3a4>
 2003fa8:	2590983a 	sll	r8,r4,r22
 2003fac:	000f883a 	mov	r7,zero
 2003fb0:	00bfffc4 	movi	r2,-1
 2003fb4:	3889883a 	add	r4,r7,r2
 2003fb8:	408b883a 	add	r5,r8,r2
 2003fbc:	21cd803a 	cmpltu	r6,r4,r7
 2003fc0:	314b883a 	add	r5,r6,r5
 2003fc4:	7904703a 	and	r2,r15,r4
 2003fc8:	8146703a 	and	r3,r16,r5
 2003fcc:	10c4b03a 	or	r2,r2,r3
 2003fd0:	10000226 	beq	r2,zero,2003fdc <_fpadd_parts+0xe0>
 2003fd4:	02400044 	movi	r9,1
 2003fd8:	0015883a 	mov	r10,zero
 2003fdc:	5a5eb03a 	or	r15,r11,r9
 2003fe0:	62a0b03a 	or	r16,r12,r10
 2003fe4:	99400117 	ldw	r5,4(r19)
 2003fe8:	a8800117 	ldw	r2,4(r21)
 2003fec:	28806e26 	beq	r5,r2,20041a8 <_fpadd_parts+0x2ac>
 2003ff0:	28006626 	beq	r5,zero,200418c <_fpadd_parts+0x290>
 2003ff4:	7c45c83a 	sub	r2,r15,r17
 2003ff8:	7889803a 	cmpltu	r4,r15,r2
 2003ffc:	8487c83a 	sub	r3,r16,r18
 2004000:	1909c83a 	sub	r4,r3,r4
 2004004:	100d883a 	mov	r6,r2
 2004008:	200f883a 	mov	r7,r4
 200400c:	38007716 	blt	r7,zero,20041ec <_fpadd_parts+0x2f0>
 2004010:	a5c00215 	stw	r23,8(r20)
 2004014:	a1c00415 	stw	r7,16(r20)
 2004018:	a0000115 	stw	zero,4(r20)
 200401c:	a1800315 	stw	r6,12(r20)
 2004020:	a2000317 	ldw	r8,12(r20)
 2004024:	a2400417 	ldw	r9,16(r20)
 2004028:	00bfffc4 	movi	r2,-1
 200402c:	408b883a 	add	r5,r8,r2
 2004030:	2a09803a 	cmpltu	r4,r5,r8
 2004034:	488d883a 	add	r6,r9,r2
 2004038:	01c40034 	movhi	r7,4096
 200403c:	39ffffc4 	addi	r7,r7,-1
 2004040:	218d883a 	add	r6,r4,r6
 2004044:	39801736 	bltu	r7,r6,20040a4 <_fpadd_parts+0x1a8>
 2004048:	31c06526 	beq	r6,r7,20041e0 <_fpadd_parts+0x2e4>
 200404c:	a3000217 	ldw	r12,8(r20)
 2004050:	4209883a 	add	r4,r8,r8
 2004054:	00bfffc4 	movi	r2,-1
 2004058:	220f803a 	cmpltu	r7,r4,r8
 200405c:	4a4b883a 	add	r5,r9,r9
 2004060:	394f883a 	add	r7,r7,r5
 2004064:	2095883a 	add	r10,r4,r2
 2004068:	3897883a 	add	r11,r7,r2
 200406c:	510d803a 	cmpltu	r6,r10,r4
 2004070:	6099883a 	add	r12,r12,r2
 2004074:	32d7883a 	add	r11,r6,r11
 2004078:	00840034 	movhi	r2,4096
 200407c:	10bfffc4 	addi	r2,r2,-1
 2004080:	2011883a 	mov	r8,r4
 2004084:	3813883a 	mov	r9,r7
 2004088:	a1000315 	stw	r4,12(r20)
 200408c:	a1c00415 	stw	r7,16(r20)
 2004090:	a3000215 	stw	r12,8(r20)
 2004094:	12c00336 	bltu	r2,r11,20040a4 <_fpadd_parts+0x1a8>
 2004098:	58bfed1e 	bne	r11,r2,2004050 <_fpadd_parts+0x154>
 200409c:	00bfff84 	movi	r2,-2
 20040a0:	12bfeb2e 	bgeu	r2,r10,2004050 <_fpadd_parts+0x154>
 20040a4:	a2800417 	ldw	r10,16(r20)
 20040a8:	008000c4 	movi	r2,3
 20040ac:	00c80034 	movhi	r3,8192
 20040b0:	18ffffc4 	addi	r3,r3,-1
 20040b4:	a2400317 	ldw	r9,12(r20)
 20040b8:	a0800015 	stw	r2,0(r20)
 20040bc:	1a802336 	bltu	r3,r10,200414c <_fpadd_parts+0x250>
 20040c0:	a027883a 	mov	r19,r20
 20040c4:	9805883a 	mov	r2,r19
 20040c8:	ddc00717 	ldw	r23,28(sp)
 20040cc:	dd800617 	ldw	r22,24(sp)
 20040d0:	dd400517 	ldw	r21,20(sp)
 20040d4:	dd000417 	ldw	r20,16(sp)
 20040d8:	dcc00317 	ldw	r19,12(sp)
 20040dc:	dc800217 	ldw	r18,8(sp)
 20040e0:	dc400117 	ldw	r17,4(sp)
 20040e4:	dc000017 	ldw	r16,0(sp)
 20040e8:	dec00804 	addi	sp,sp,32
 20040ec:	f800283a 	ret
 20040f0:	20fff41e 	bne	r4,r3,20040c4 <_fpadd_parts+0x1c8>
 20040f4:	31000015 	stw	r4,0(r6)
 20040f8:	98800117 	ldw	r2,4(r19)
 20040fc:	30800115 	stw	r2,4(r6)
 2004100:	98c00217 	ldw	r3,8(r19)
 2004104:	30c00215 	stw	r3,8(r6)
 2004108:	98800317 	ldw	r2,12(r19)
 200410c:	30800315 	stw	r2,12(r6)
 2004110:	98c00417 	ldw	r3,16(r19)
 2004114:	30c00415 	stw	r3,16(r6)
 2004118:	98800117 	ldw	r2,4(r19)
 200411c:	28c00117 	ldw	r3,4(r5)
 2004120:	3027883a 	mov	r19,r6
 2004124:	10c4703a 	and	r2,r2,r3
 2004128:	30800115 	stw	r2,4(r6)
 200412c:	003fe506 	br	20040c4 <_fpadd_parts+0x1c8>
 2004130:	1dc02616 	blt	r3,r23,20041cc <_fpadd_parts+0x2d0>
 2004134:	0023883a 	mov	r17,zero
 2004138:	182f883a 	mov	r23,r3
 200413c:	0025883a 	mov	r18,zero
 2004140:	003fa806 	br	2003fe4 <_fpadd_parts+0xe8>
 2004144:	a827883a 	mov	r19,r21
 2004148:	003fde06 	br	20040c4 <_fpadd_parts+0x1c8>
 200414c:	01800044 	movi	r6,1
 2004150:	500497fa 	slli	r2,r10,31
 2004154:	4808d07a 	srli	r4,r9,1
 2004158:	518ad83a 	srl	r5,r10,r6
 200415c:	a2000217 	ldw	r8,8(r20)
 2004160:	1108b03a 	or	r4,r2,r4
 2004164:	0007883a 	mov	r3,zero
 2004168:	4984703a 	and	r2,r9,r6
 200416c:	208cb03a 	or	r6,r4,r2
 2004170:	28ceb03a 	or	r7,r5,r3
 2004174:	42000044 	addi	r8,r8,1
 2004178:	a027883a 	mov	r19,r20
 200417c:	a1c00415 	stw	r7,16(r20)
 2004180:	a2000215 	stw	r8,8(r20)
 2004184:	a1800315 	stw	r6,12(r20)
 2004188:	003fce06 	br	20040c4 <_fpadd_parts+0x1c8>
 200418c:	8bc5c83a 	sub	r2,r17,r15
 2004190:	8889803a 	cmpltu	r4,r17,r2
 2004194:	9407c83a 	sub	r3,r18,r16
 2004198:	1909c83a 	sub	r4,r3,r4
 200419c:	100d883a 	mov	r6,r2
 20041a0:	200f883a 	mov	r7,r4
 20041a4:	003f9906 	br	200400c <_fpadd_parts+0x110>
 20041a8:	8bc5883a 	add	r2,r17,r15
 20041ac:	1449803a 	cmpltu	r4,r2,r17
 20041b0:	9407883a 	add	r3,r18,r16
 20041b4:	20c9883a 	add	r4,r4,r3
 20041b8:	a1400115 	stw	r5,4(r20)
 20041bc:	a5c00215 	stw	r23,8(r20)
 20041c0:	a0800315 	stw	r2,12(r20)
 20041c4:	a1000415 	stw	r4,16(r20)
 20041c8:	003fb606 	br	20040a4 <_fpadd_parts+0x1a8>
 20041cc:	001f883a 	mov	r15,zero
 20041d0:	0021883a 	mov	r16,zero
 20041d4:	003f8306 	br	2003fe4 <_fpadd_parts+0xe8>
 20041d8:	018dc83a 	sub	r6,zero,r6
 20041dc:	003f6706 	br	2003f7c <_fpadd_parts+0x80>
 20041e0:	00bfff84 	movi	r2,-2
 20041e4:	117faf36 	bltu	r2,r5,20040a4 <_fpadd_parts+0x1a8>
 20041e8:	003f9806 	br	200404c <_fpadd_parts+0x150>
 20041ec:	0005883a 	mov	r2,zero
 20041f0:	1189c83a 	sub	r4,r2,r6
 20041f4:	1105803a 	cmpltu	r2,r2,r4
 20041f8:	01cbc83a 	sub	r5,zero,r7
 20041fc:	2885c83a 	sub	r2,r5,r2
 2004200:	01800044 	movi	r6,1
 2004204:	a1800115 	stw	r6,4(r20)
 2004208:	a5c00215 	stw	r23,8(r20)
 200420c:	a1000315 	stw	r4,12(r20)
 2004210:	a0800415 	stw	r2,16(r20)
 2004214:	003f8206 	br	2004020 <_fpadd_parts+0x124>
 2004218:	203f7226 	beq	r4,zero,2003fe4 <_fpadd_parts+0xe8>
 200421c:	35bff804 	addi	r22,r6,-32
 2004220:	b9af883a 	add	r23,r23,r6
 2004224:	b0003116 	blt	r22,zero,20042ec <_fpadd_parts+0x3f0>
 2004228:	959ad83a 	srl	r13,r18,r22
 200422c:	001d883a 	mov	r14,zero
 2004230:	000f883a 	mov	r7,zero
 2004234:	01000044 	movi	r4,1
 2004238:	0011883a 	mov	r8,zero
 200423c:	b0002516 	blt	r22,zero,20042d4 <_fpadd_parts+0x3d8>
 2004240:	2594983a 	sll	r10,r4,r22
 2004244:	0013883a 	mov	r9,zero
 2004248:	00bfffc4 	movi	r2,-1
 200424c:	4889883a 	add	r4,r9,r2
 2004250:	508b883a 	add	r5,r10,r2
 2004254:	224d803a 	cmpltu	r6,r4,r9
 2004258:	314b883a 	add	r5,r6,r5
 200425c:	8904703a 	and	r2,r17,r4
 2004260:	9146703a 	and	r3,r18,r5
 2004264:	10c4b03a 	or	r2,r2,r3
 2004268:	10000226 	beq	r2,zero,2004274 <_fpadd_parts+0x378>
 200426c:	01c00044 	movi	r7,1
 2004270:	0011883a 	mov	r8,zero
 2004274:	69e2b03a 	or	r17,r13,r7
 2004278:	7224b03a 	or	r18,r14,r8
 200427c:	003f5906 	br	2003fe4 <_fpadd_parts+0xe8>
 2004280:	8407883a 	add	r3,r16,r16
 2004284:	008007c4 	movi	r2,31
 2004288:	1185c83a 	sub	r2,r2,r6
 200428c:	1886983a 	sll	r3,r3,r2
 2004290:	7996d83a 	srl	r11,r15,r6
 2004294:	8198d83a 	srl	r12,r16,r6
 2004298:	1ad6b03a 	or	r11,r3,r11
 200429c:	003f3e06 	br	2003f98 <_fpadd_parts+0x9c>
 20042a0:	2006d07a 	srli	r3,r4,1
 20042a4:	008007c4 	movi	r2,31
 20042a8:	1185c83a 	sub	r2,r2,r6
 20042ac:	1890d83a 	srl	r8,r3,r2
 20042b0:	218e983a 	sll	r7,r4,r6
 20042b4:	003f3e06 	br	2003fb0 <_fpadd_parts+0xb4>
 20042b8:	113f821e 	bne	r2,r4,20040c4 <_fpadd_parts+0x1c8>
 20042bc:	28c00117 	ldw	r3,4(r5)
 20042c0:	98800117 	ldw	r2,4(r19)
 20042c4:	10ff7f26 	beq	r2,r3,20040c4 <_fpadd_parts+0x1c8>
 20042c8:	04c08074 	movhi	r19,513
 20042cc:	9ce6fc04 	addi	r19,r19,-25616
 20042d0:	003f7c06 	br	20040c4 <_fpadd_parts+0x1c8>
 20042d4:	2006d07a 	srli	r3,r4,1
 20042d8:	008007c4 	movi	r2,31
 20042dc:	1185c83a 	sub	r2,r2,r6
 20042e0:	1894d83a 	srl	r10,r3,r2
 20042e4:	2192983a 	sll	r9,r4,r6
 20042e8:	003fd706 	br	2004248 <_fpadd_parts+0x34c>
 20042ec:	9487883a 	add	r3,r18,r18
 20042f0:	008007c4 	movi	r2,31
 20042f4:	1185c83a 	sub	r2,r2,r6
 20042f8:	1886983a 	sll	r3,r3,r2
 20042fc:	899ad83a 	srl	r13,r17,r6
 2004300:	919cd83a 	srl	r14,r18,r6
 2004304:	1b5ab03a 	or	r13,r3,r13
 2004308:	003fc906 	br	2004230 <_fpadd_parts+0x334>

0200430c <__subdf3>:
 200430c:	deffea04 	addi	sp,sp,-88
 2004310:	dcc01415 	stw	r19,80(sp)
 2004314:	dcc00404 	addi	r19,sp,16
 2004318:	2011883a 	mov	r8,r4
 200431c:	2813883a 	mov	r9,r5
 2004320:	dc401315 	stw	r17,76(sp)
 2004324:	d809883a 	mov	r4,sp
 2004328:	980b883a 	mov	r5,r19
 200432c:	dc400904 	addi	r17,sp,36
 2004330:	dfc01515 	stw	ra,84(sp)
 2004334:	da400115 	stw	r9,4(sp)
 2004338:	d9c00315 	stw	r7,12(sp)
 200433c:	da000015 	stw	r8,0(sp)
 2004340:	d9800215 	stw	r6,8(sp)
 2004344:	20055a00 	call	20055a0 <__unpack_d>
 2004348:	d9000204 	addi	r4,sp,8
 200434c:	880b883a 	mov	r5,r17
 2004350:	20055a00 	call	20055a0 <__unpack_d>
 2004354:	d8800a17 	ldw	r2,40(sp)
 2004358:	880b883a 	mov	r5,r17
 200435c:	9809883a 	mov	r4,r19
 2004360:	d9800e04 	addi	r6,sp,56
 2004364:	1080005c 	xori	r2,r2,1
 2004368:	d8800a15 	stw	r2,40(sp)
 200436c:	2003efc0 	call	2003efc <_fpadd_parts>
 2004370:	1009883a 	mov	r4,r2
 2004374:	200528c0 	call	200528c <__pack_d>
 2004378:	dfc01517 	ldw	ra,84(sp)
 200437c:	dcc01417 	ldw	r19,80(sp)
 2004380:	dc401317 	ldw	r17,76(sp)
 2004384:	dec01604 	addi	sp,sp,88
 2004388:	f800283a 	ret

0200438c <__adddf3>:
 200438c:	deffea04 	addi	sp,sp,-88
 2004390:	dcc01415 	stw	r19,80(sp)
 2004394:	dcc00404 	addi	r19,sp,16
 2004398:	2011883a 	mov	r8,r4
 200439c:	2813883a 	mov	r9,r5
 20043a0:	dc401315 	stw	r17,76(sp)
 20043a4:	d809883a 	mov	r4,sp
 20043a8:	980b883a 	mov	r5,r19
 20043ac:	dc400904 	addi	r17,sp,36
 20043b0:	dfc01515 	stw	ra,84(sp)
 20043b4:	da400115 	stw	r9,4(sp)
 20043b8:	d9c00315 	stw	r7,12(sp)
 20043bc:	da000015 	stw	r8,0(sp)
 20043c0:	d9800215 	stw	r6,8(sp)
 20043c4:	20055a00 	call	20055a0 <__unpack_d>
 20043c8:	d9000204 	addi	r4,sp,8
 20043cc:	880b883a 	mov	r5,r17
 20043d0:	20055a00 	call	20055a0 <__unpack_d>
 20043d4:	d9800e04 	addi	r6,sp,56
 20043d8:	9809883a 	mov	r4,r19
 20043dc:	880b883a 	mov	r5,r17
 20043e0:	2003efc0 	call	2003efc <_fpadd_parts>
 20043e4:	1009883a 	mov	r4,r2
 20043e8:	200528c0 	call	200528c <__pack_d>
 20043ec:	dfc01517 	ldw	ra,84(sp)
 20043f0:	dcc01417 	ldw	r19,80(sp)
 20043f4:	dc401317 	ldw	r17,76(sp)
 20043f8:	dec01604 	addi	sp,sp,88
 20043fc:	f800283a 	ret

02004400 <__muldf3>:
 2004400:	deffe004 	addi	sp,sp,-128
 2004404:	dc401815 	stw	r17,96(sp)
 2004408:	dc400404 	addi	r17,sp,16
 200440c:	2011883a 	mov	r8,r4
 2004410:	2813883a 	mov	r9,r5
 2004414:	dc001715 	stw	r16,92(sp)
 2004418:	d809883a 	mov	r4,sp
 200441c:	880b883a 	mov	r5,r17
 2004420:	dc000904 	addi	r16,sp,36
 2004424:	dfc01f15 	stw	ra,124(sp)
 2004428:	da400115 	stw	r9,4(sp)
 200442c:	d9c00315 	stw	r7,12(sp)
 2004430:	da000015 	stw	r8,0(sp)
 2004434:	d9800215 	stw	r6,8(sp)
 2004438:	ddc01e15 	stw	r23,120(sp)
 200443c:	dd801d15 	stw	r22,116(sp)
 2004440:	dd401c15 	stw	r21,112(sp)
 2004444:	dd001b15 	stw	r20,108(sp)
 2004448:	dcc01a15 	stw	r19,104(sp)
 200444c:	dc801915 	stw	r18,100(sp)
 2004450:	20055a00 	call	20055a0 <__unpack_d>
 2004454:	d9000204 	addi	r4,sp,8
 2004458:	800b883a 	mov	r5,r16
 200445c:	20055a00 	call	20055a0 <__unpack_d>
 2004460:	d9000417 	ldw	r4,16(sp)
 2004464:	00800044 	movi	r2,1
 2004468:	1100102e 	bgeu	r2,r4,20044ac <__muldf3+0xac>
 200446c:	d8c00917 	ldw	r3,36(sp)
 2004470:	10c0062e 	bgeu	r2,r3,200448c <__muldf3+0x8c>
 2004474:	00800104 	movi	r2,4
 2004478:	20800a26 	beq	r4,r2,20044a4 <__muldf3+0xa4>
 200447c:	1880cc26 	beq	r3,r2,20047b0 <__muldf3+0x3b0>
 2004480:	00800084 	movi	r2,2
 2004484:	20800926 	beq	r4,r2,20044ac <__muldf3+0xac>
 2004488:	1880191e 	bne	r3,r2,20044f0 <__muldf3+0xf0>
 200448c:	d8c00a17 	ldw	r3,40(sp)
 2004490:	d8800517 	ldw	r2,20(sp)
 2004494:	8009883a 	mov	r4,r16
 2004498:	10c4c03a 	cmpne	r2,r2,r3
 200449c:	d8800a15 	stw	r2,40(sp)
 20044a0:	00000706 	br	20044c0 <__muldf3+0xc0>
 20044a4:	00800084 	movi	r2,2
 20044a8:	1880c326 	beq	r3,r2,20047b8 <__muldf3+0x3b8>
 20044ac:	d8800517 	ldw	r2,20(sp)
 20044b0:	d8c00a17 	ldw	r3,40(sp)
 20044b4:	8809883a 	mov	r4,r17
 20044b8:	10c4c03a 	cmpne	r2,r2,r3
 20044bc:	d8800515 	stw	r2,20(sp)
 20044c0:	200528c0 	call	200528c <__pack_d>
 20044c4:	dfc01f17 	ldw	ra,124(sp)
 20044c8:	ddc01e17 	ldw	r23,120(sp)
 20044cc:	dd801d17 	ldw	r22,116(sp)
 20044d0:	dd401c17 	ldw	r21,112(sp)
 20044d4:	dd001b17 	ldw	r20,108(sp)
 20044d8:	dcc01a17 	ldw	r19,104(sp)
 20044dc:	dc801917 	ldw	r18,100(sp)
 20044e0:	dc401817 	ldw	r17,96(sp)
 20044e4:	dc001717 	ldw	r16,92(sp)
 20044e8:	dec02004 	addi	sp,sp,128
 20044ec:	f800283a 	ret
 20044f0:	dd800717 	ldw	r22,28(sp)
 20044f4:	dc800c17 	ldw	r18,48(sp)
 20044f8:	002b883a 	mov	r21,zero
 20044fc:	0023883a 	mov	r17,zero
 2004500:	a80b883a 	mov	r5,r21
 2004504:	b00d883a 	mov	r6,r22
 2004508:	880f883a 	mov	r7,r17
 200450c:	ddc00817 	ldw	r23,32(sp)
 2004510:	dcc00d17 	ldw	r19,52(sp)
 2004514:	9009883a 	mov	r4,r18
 2004518:	20051740 	call	2005174 <__muldi3>
 200451c:	001b883a 	mov	r13,zero
 2004520:	680f883a 	mov	r7,r13
 2004524:	b009883a 	mov	r4,r22
 2004528:	000b883a 	mov	r5,zero
 200452c:	980d883a 	mov	r6,r19
 2004530:	b82d883a 	mov	r22,r23
 2004534:	002f883a 	mov	r23,zero
 2004538:	db401615 	stw	r13,88(sp)
 200453c:	d8801315 	stw	r2,76(sp)
 2004540:	d8c01415 	stw	r3,80(sp)
 2004544:	dcc01515 	stw	r19,84(sp)
 2004548:	20051740 	call	2005174 <__muldi3>
 200454c:	b00d883a 	mov	r6,r22
 2004550:	000b883a 	mov	r5,zero
 2004554:	9009883a 	mov	r4,r18
 2004558:	b80f883a 	mov	r7,r23
 200455c:	1021883a 	mov	r16,r2
 2004560:	1823883a 	mov	r17,r3
 2004564:	20051740 	call	2005174 <__muldi3>
 2004568:	8085883a 	add	r2,r16,r2
 200456c:	140d803a 	cmpltu	r6,r2,r16
 2004570:	88c7883a 	add	r3,r17,r3
 2004574:	30cd883a 	add	r6,r6,r3
 2004578:	1029883a 	mov	r20,r2
 200457c:	302b883a 	mov	r21,r6
 2004580:	da801317 	ldw	r10,76(sp)
 2004584:	dac01417 	ldw	r11,80(sp)
 2004588:	db001517 	ldw	r12,84(sp)
 200458c:	db401617 	ldw	r13,88(sp)
 2004590:	3440612e 	bgeu	r6,r17,2004718 <__muldf3+0x318>
 2004594:	0009883a 	mov	r4,zero
 2004598:	5105883a 	add	r2,r10,r4
 200459c:	128d803a 	cmpltu	r6,r2,r10
 20045a0:	5d07883a 	add	r3,r11,r20
 20045a4:	30cd883a 	add	r6,r6,r3
 20045a8:	0021883a 	mov	r16,zero
 20045ac:	04400044 	movi	r17,1
 20045b0:	1025883a 	mov	r18,r2
 20045b4:	3027883a 	mov	r19,r6
 20045b8:	32c06236 	bltu	r6,r11,2004744 <__muldf3+0x344>
 20045bc:	59807a26 	beq	r11,r6,20047a8 <__muldf3+0x3a8>
 20045c0:	680b883a 	mov	r5,r13
 20045c4:	b80f883a 	mov	r7,r23
 20045c8:	6009883a 	mov	r4,r12
 20045cc:	b00d883a 	mov	r6,r22
 20045d0:	20051740 	call	2005174 <__muldi3>
 20045d4:	1009883a 	mov	r4,r2
 20045d8:	000f883a 	mov	r7,zero
 20045dc:	1545883a 	add	r2,r2,r21
 20045e0:	1111803a 	cmpltu	r8,r2,r4
 20045e4:	19c7883a 	add	r3,r3,r7
 20045e8:	40c7883a 	add	r3,r8,r3
 20045ec:	88cb883a 	add	r5,r17,r3
 20045f0:	d8c00617 	ldw	r3,24(sp)
 20045f4:	8089883a 	add	r4,r16,r2
 20045f8:	d8800b17 	ldw	r2,44(sp)
 20045fc:	18c00104 	addi	r3,r3,4
 2004600:	240d803a 	cmpltu	r6,r4,r16
 2004604:	10c7883a 	add	r3,r2,r3
 2004608:	2013883a 	mov	r9,r4
 200460c:	d8800a17 	ldw	r2,40(sp)
 2004610:	d9000517 	ldw	r4,20(sp)
 2004614:	314d883a 	add	r6,r6,r5
 2004618:	3015883a 	mov	r10,r6
 200461c:	2088c03a 	cmpne	r4,r4,r2
 2004620:	00880034 	movhi	r2,8192
 2004624:	10bfffc4 	addi	r2,r2,-1
 2004628:	d9000f15 	stw	r4,60(sp)
 200462c:	d8c01015 	stw	r3,64(sp)
 2004630:	1180162e 	bgeu	r2,r6,200468c <__muldf3+0x28c>
 2004634:	1811883a 	mov	r8,r3
 2004638:	101f883a 	mov	r15,r2
 200463c:	980497fa 	slli	r2,r19,31
 2004640:	9016d07a 	srli	r11,r18,1
 2004644:	500697fa 	slli	r3,r10,31
 2004648:	480cd07a 	srli	r6,r9,1
 200464c:	500ed07a 	srli	r7,r10,1
 2004650:	12d6b03a 	or	r11,r2,r11
 2004654:	00800044 	movi	r2,1
 2004658:	198cb03a 	or	r6,r3,r6
 200465c:	4888703a 	and	r4,r9,r2
 2004660:	9818d07a 	srli	r12,r19,1
 2004664:	001b883a 	mov	r13,zero
 2004668:	03a00034 	movhi	r14,32768
 200466c:	3013883a 	mov	r9,r6
 2004670:	3815883a 	mov	r10,r7
 2004674:	4091883a 	add	r8,r8,r2
 2004678:	20000226 	beq	r4,zero,2004684 <__muldf3+0x284>
 200467c:	5b64b03a 	or	r18,r11,r13
 2004680:	63a6b03a 	or	r19,r12,r14
 2004684:	7abfed36 	bltu	r15,r10,200463c <__muldf3+0x23c>
 2004688:	da001015 	stw	r8,64(sp)
 200468c:	00840034 	movhi	r2,4096
 2004690:	10bfffc4 	addi	r2,r2,-1
 2004694:	12801436 	bltu	r2,r10,20046e8 <__muldf3+0x2e8>
 2004698:	da001017 	ldw	r8,64(sp)
 200469c:	101f883a 	mov	r15,r2
 20046a0:	4a45883a 	add	r2,r9,r9
 20046a4:	124d803a 	cmpltu	r6,r2,r9
 20046a8:	5287883a 	add	r3,r10,r10
 20046ac:	9497883a 	add	r11,r18,r18
 20046b0:	5c8f803a 	cmpltu	r7,r11,r18
 20046b4:	9cd9883a 	add	r12,r19,r19
 20046b8:	01000044 	movi	r4,1
 20046bc:	30cd883a 	add	r6,r6,r3
 20046c0:	3b0f883a 	add	r7,r7,r12
 20046c4:	423fffc4 	addi	r8,r8,-1
 20046c8:	1013883a 	mov	r9,r2
 20046cc:	3015883a 	mov	r10,r6
 20046d0:	111ab03a 	or	r13,r2,r4
 20046d4:	98003016 	blt	r19,zero,2004798 <__muldf3+0x398>
 20046d8:	5825883a 	mov	r18,r11
 20046dc:	3827883a 	mov	r19,r7
 20046e0:	7abfef2e 	bgeu	r15,r10,20046a0 <__muldf3+0x2a0>
 20046e4:	da001015 	stw	r8,64(sp)
 20046e8:	00803fc4 	movi	r2,255
 20046ec:	488e703a 	and	r7,r9,r2
 20046f0:	00802004 	movi	r2,128
 20046f4:	0007883a 	mov	r3,zero
 20046f8:	0011883a 	mov	r8,zero
 20046fc:	38801826 	beq	r7,r2,2004760 <__muldf3+0x360>
 2004700:	008000c4 	movi	r2,3
 2004704:	d9000e04 	addi	r4,sp,56
 2004708:	da801215 	stw	r10,72(sp)
 200470c:	d8800e15 	stw	r2,56(sp)
 2004710:	da401115 	stw	r9,68(sp)
 2004714:	003f6a06 	br	20044c0 <__muldf3+0xc0>
 2004718:	89802126 	beq	r17,r6,20047a0 <__muldf3+0x3a0>
 200471c:	0009883a 	mov	r4,zero
 2004720:	5105883a 	add	r2,r10,r4
 2004724:	128d803a 	cmpltu	r6,r2,r10
 2004728:	5d07883a 	add	r3,r11,r20
 200472c:	30cd883a 	add	r6,r6,r3
 2004730:	0021883a 	mov	r16,zero
 2004734:	0023883a 	mov	r17,zero
 2004738:	1025883a 	mov	r18,r2
 200473c:	3027883a 	mov	r19,r6
 2004740:	32ff9e2e 	bgeu	r6,r11,20045bc <__muldf3+0x1bc>
 2004744:	00800044 	movi	r2,1
 2004748:	8089883a 	add	r4,r16,r2
 200474c:	240d803a 	cmpltu	r6,r4,r16
 2004750:	344d883a 	add	r6,r6,r17
 2004754:	2021883a 	mov	r16,r4
 2004758:	3023883a 	mov	r17,r6
 200475c:	003f9806 	br	20045c0 <__muldf3+0x1c0>
 2004760:	403fe71e 	bne	r8,zero,2004700 <__muldf3+0x300>
 2004764:	01004004 	movi	r4,256
 2004768:	4904703a 	and	r2,r9,r4
 200476c:	10c4b03a 	or	r2,r2,r3
 2004770:	103fe31e 	bne	r2,zero,2004700 <__muldf3+0x300>
 2004774:	94c4b03a 	or	r2,r18,r19
 2004778:	103fe126 	beq	r2,zero,2004700 <__muldf3+0x300>
 200477c:	49c5883a 	add	r2,r9,r7
 2004780:	1251803a 	cmpltu	r8,r2,r9
 2004784:	4291883a 	add	r8,r8,r10
 2004788:	013fc004 	movi	r4,-256
 200478c:	1112703a 	and	r9,r2,r4
 2004790:	4015883a 	mov	r10,r8
 2004794:	003fda06 	br	2004700 <__muldf3+0x300>
 2004798:	6813883a 	mov	r9,r13
 200479c:	003fce06 	br	20046d8 <__muldf3+0x2d8>
 20047a0:	143f7c36 	bltu	r2,r16,2004594 <__muldf3+0x194>
 20047a4:	003fdd06 	br	200471c <__muldf3+0x31c>
 20047a8:	12bf852e 	bgeu	r2,r10,20045c0 <__muldf3+0x1c0>
 20047ac:	003fe506 	br	2004744 <__muldf3+0x344>
 20047b0:	00800084 	movi	r2,2
 20047b4:	20bf351e 	bne	r4,r2,200448c <__muldf3+0x8c>
 20047b8:	01008074 	movhi	r4,513
 20047bc:	2126fc04 	addi	r4,r4,-25616
 20047c0:	003f3f06 	br	20044c0 <__muldf3+0xc0>

020047c4 <__divdf3>:
 20047c4:	deffed04 	addi	sp,sp,-76
 20047c8:	dcc01115 	stw	r19,68(sp)
 20047cc:	dcc00404 	addi	r19,sp,16
 20047d0:	2011883a 	mov	r8,r4
 20047d4:	2813883a 	mov	r9,r5
 20047d8:	dc000e15 	stw	r16,56(sp)
 20047dc:	d809883a 	mov	r4,sp
 20047e0:	980b883a 	mov	r5,r19
 20047e4:	dc000904 	addi	r16,sp,36
 20047e8:	dfc01215 	stw	ra,72(sp)
 20047ec:	da400115 	stw	r9,4(sp)
 20047f0:	d9c00315 	stw	r7,12(sp)
 20047f4:	da000015 	stw	r8,0(sp)
 20047f8:	d9800215 	stw	r6,8(sp)
 20047fc:	dc801015 	stw	r18,64(sp)
 2004800:	dc400f15 	stw	r17,60(sp)
 2004804:	20055a00 	call	20055a0 <__unpack_d>
 2004808:	d9000204 	addi	r4,sp,8
 200480c:	800b883a 	mov	r5,r16
 2004810:	20055a00 	call	20055a0 <__unpack_d>
 2004814:	d9000417 	ldw	r4,16(sp)
 2004818:	00800044 	movi	r2,1
 200481c:	11000b2e 	bgeu	r2,r4,200484c <__divdf3+0x88>
 2004820:	d9400917 	ldw	r5,36(sp)
 2004824:	1140762e 	bgeu	r2,r5,2004a00 <__divdf3+0x23c>
 2004828:	d8800517 	ldw	r2,20(sp)
 200482c:	d8c00a17 	ldw	r3,40(sp)
 2004830:	01800104 	movi	r6,4
 2004834:	10c4f03a 	xor	r2,r2,r3
 2004838:	d8800515 	stw	r2,20(sp)
 200483c:	21800226 	beq	r4,r6,2004848 <__divdf3+0x84>
 2004840:	00800084 	movi	r2,2
 2004844:	2080141e 	bne	r4,r2,2004898 <__divdf3+0xd4>
 2004848:	29000926 	beq	r5,r4,2004870 <__divdf3+0xac>
 200484c:	9809883a 	mov	r4,r19
 2004850:	200528c0 	call	200528c <__pack_d>
 2004854:	dfc01217 	ldw	ra,72(sp)
 2004858:	dcc01117 	ldw	r19,68(sp)
 200485c:	dc801017 	ldw	r18,64(sp)
 2004860:	dc400f17 	ldw	r17,60(sp)
 2004864:	dc000e17 	ldw	r16,56(sp)
 2004868:	dec01304 	addi	sp,sp,76
 200486c:	f800283a 	ret
 2004870:	01008074 	movhi	r4,513
 2004874:	2126fc04 	addi	r4,r4,-25616
 2004878:	200528c0 	call	200528c <__pack_d>
 200487c:	dfc01217 	ldw	ra,72(sp)
 2004880:	dcc01117 	ldw	r19,68(sp)
 2004884:	dc801017 	ldw	r18,64(sp)
 2004888:	dc400f17 	ldw	r17,60(sp)
 200488c:	dc000e17 	ldw	r16,56(sp)
 2004890:	dec01304 	addi	sp,sp,76
 2004894:	f800283a 	ret
 2004898:	29805b26 	beq	r5,r6,2004a08 <__divdf3+0x244>
 200489c:	28802d26 	beq	r5,r2,2004954 <__divdf3+0x190>
 20048a0:	d8c00617 	ldw	r3,24(sp)
 20048a4:	d8800b17 	ldw	r2,44(sp)
 20048a8:	d9c00817 	ldw	r7,32(sp)
 20048ac:	dc400d17 	ldw	r17,52(sp)
 20048b0:	188bc83a 	sub	r5,r3,r2
 20048b4:	d9800717 	ldw	r6,28(sp)
 20048b8:	dc000c17 	ldw	r16,48(sp)
 20048bc:	d9400615 	stw	r5,24(sp)
 20048c0:	3c403836 	bltu	r7,r17,20049a4 <__divdf3+0x1e0>
 20048c4:	89c03626 	beq	r17,r7,20049a0 <__divdf3+0x1dc>
 20048c8:	0015883a 	mov	r10,zero
 20048cc:	001d883a 	mov	r14,zero
 20048d0:	02c40034 	movhi	r11,4096
 20048d4:	001f883a 	mov	r15,zero
 20048d8:	003f883a 	mov	ra,zero
 20048dc:	04800f44 	movi	r18,61
 20048e0:	00000f06 	br	2004920 <__divdf3+0x15c>
 20048e4:	601d883a 	mov	r14,r12
 20048e8:	681f883a 	mov	r15,r13
 20048ec:	400d883a 	mov	r6,r8
 20048f0:	100f883a 	mov	r7,r2
 20048f4:	3191883a 	add	r8,r6,r6
 20048f8:	5808d07a 	srli	r4,r11,1
 20048fc:	4185803a 	cmpltu	r2,r8,r6
 2004900:	39d3883a 	add	r9,r7,r7
 2004904:	28c6b03a 	or	r3,r5,r3
 2004908:	1245883a 	add	r2,r2,r9
 200490c:	1815883a 	mov	r10,r3
 2004910:	2017883a 	mov	r11,r4
 2004914:	400d883a 	mov	r6,r8
 2004918:	100f883a 	mov	r7,r2
 200491c:	fc801726 	beq	ra,r18,200497c <__divdf3+0x1b8>
 2004920:	580a97fa 	slli	r5,r11,31
 2004924:	5006d07a 	srli	r3,r10,1
 2004928:	ffc00044 	addi	ra,ra,1
 200492c:	3c7ff136 	bltu	r7,r17,20048f4 <__divdf3+0x130>
 2004930:	3411c83a 	sub	r8,r6,r16
 2004934:	3205803a 	cmpltu	r2,r6,r8
 2004938:	3c53c83a 	sub	r9,r7,r17
 200493c:	7298b03a 	or	r12,r14,r10
 2004940:	7adab03a 	or	r13,r15,r11
 2004944:	4885c83a 	sub	r2,r9,r2
 2004948:	89ffe61e 	bne	r17,r7,20048e4 <__divdf3+0x120>
 200494c:	343fe936 	bltu	r6,r16,20048f4 <__divdf3+0x130>
 2004950:	003fe406 	br	20048e4 <__divdf3+0x120>
 2004954:	9809883a 	mov	r4,r19
 2004958:	d9800415 	stw	r6,16(sp)
 200495c:	200528c0 	call	200528c <__pack_d>
 2004960:	dfc01217 	ldw	ra,72(sp)
 2004964:	dcc01117 	ldw	r19,68(sp)
 2004968:	dc801017 	ldw	r18,64(sp)
 200496c:	dc400f17 	ldw	r17,60(sp)
 2004970:	dc000e17 	ldw	r16,56(sp)
 2004974:	dec01304 	addi	sp,sp,76
 2004978:	f800283a 	ret
 200497c:	00803fc4 	movi	r2,255
 2004980:	7090703a 	and	r8,r14,r2
 2004984:	00802004 	movi	r2,128
 2004988:	0007883a 	mov	r3,zero
 200498c:	0013883a 	mov	r9,zero
 2004990:	40800d26 	beq	r8,r2,20049c8 <__divdf3+0x204>
 2004994:	dbc00815 	stw	r15,32(sp)
 2004998:	db800715 	stw	r14,28(sp)
 200499c:	003fab06 	br	200484c <__divdf3+0x88>
 20049a0:	343fc92e 	bgeu	r6,r16,20048c8 <__divdf3+0x104>
 20049a4:	3185883a 	add	r2,r6,r6
 20049a8:	1189803a 	cmpltu	r4,r2,r6
 20049ac:	39c7883a 	add	r3,r7,r7
 20049b0:	20c9883a 	add	r4,r4,r3
 20049b4:	297fffc4 	addi	r5,r5,-1
 20049b8:	100d883a 	mov	r6,r2
 20049bc:	200f883a 	mov	r7,r4
 20049c0:	d9400615 	stw	r5,24(sp)
 20049c4:	003fc006 	br	20048c8 <__divdf3+0x104>
 20049c8:	483ff21e 	bne	r9,zero,2004994 <__divdf3+0x1d0>
 20049cc:	01004004 	movi	r4,256
 20049d0:	7104703a 	and	r2,r14,r4
 20049d4:	10c4b03a 	or	r2,r2,r3
 20049d8:	103fee1e 	bne	r2,zero,2004994 <__divdf3+0x1d0>
 20049dc:	31c4b03a 	or	r2,r6,r7
 20049e0:	103fec26 	beq	r2,zero,2004994 <__divdf3+0x1d0>
 20049e4:	7205883a 	add	r2,r14,r8
 20049e8:	1391803a 	cmpltu	r8,r2,r14
 20049ec:	43d1883a 	add	r8,r8,r15
 20049f0:	013fc004 	movi	r4,-256
 20049f4:	111c703a 	and	r14,r2,r4
 20049f8:	401f883a 	mov	r15,r8
 20049fc:	003fe506 	br	2004994 <__divdf3+0x1d0>
 2004a00:	8009883a 	mov	r4,r16
 2004a04:	003f9206 	br	2004850 <__divdf3+0x8c>
 2004a08:	9809883a 	mov	r4,r19
 2004a0c:	d8000715 	stw	zero,28(sp)
 2004a10:	d8000815 	stw	zero,32(sp)
 2004a14:	d8000615 	stw	zero,24(sp)
 2004a18:	003f8d06 	br	2004850 <__divdf3+0x8c>

02004a1c <__eqdf2>:
 2004a1c:	deffef04 	addi	sp,sp,-68
 2004a20:	dc400f15 	stw	r17,60(sp)
 2004a24:	dc400404 	addi	r17,sp,16
 2004a28:	2005883a 	mov	r2,r4
 2004a2c:	2807883a 	mov	r3,r5
 2004a30:	dc000e15 	stw	r16,56(sp)
 2004a34:	d809883a 	mov	r4,sp
 2004a38:	880b883a 	mov	r5,r17
 2004a3c:	dc000904 	addi	r16,sp,36
 2004a40:	d8c00115 	stw	r3,4(sp)
 2004a44:	d8800015 	stw	r2,0(sp)
 2004a48:	d9800215 	stw	r6,8(sp)
 2004a4c:	dfc01015 	stw	ra,64(sp)
 2004a50:	d9c00315 	stw	r7,12(sp)
 2004a54:	20055a00 	call	20055a0 <__unpack_d>
 2004a58:	d9000204 	addi	r4,sp,8
 2004a5c:	800b883a 	mov	r5,r16
 2004a60:	20055a00 	call	20055a0 <__unpack_d>
 2004a64:	d8800417 	ldw	r2,16(sp)
 2004a68:	00c00044 	movi	r3,1
 2004a6c:	180d883a 	mov	r6,r3
 2004a70:	1880062e 	bgeu	r3,r2,2004a8c <__eqdf2+0x70>
 2004a74:	d8800917 	ldw	r2,36(sp)
 2004a78:	8809883a 	mov	r4,r17
 2004a7c:	800b883a 	mov	r5,r16
 2004a80:	1880022e 	bgeu	r3,r2,2004a8c <__eqdf2+0x70>
 2004a84:	20056d80 	call	20056d8 <__fpcmp_parts_d>
 2004a88:	100d883a 	mov	r6,r2
 2004a8c:	3005883a 	mov	r2,r6
 2004a90:	dfc01017 	ldw	ra,64(sp)
 2004a94:	dc400f17 	ldw	r17,60(sp)
 2004a98:	dc000e17 	ldw	r16,56(sp)
 2004a9c:	dec01104 	addi	sp,sp,68
 2004aa0:	f800283a 	ret

02004aa4 <__nedf2>:
 2004aa4:	deffef04 	addi	sp,sp,-68
 2004aa8:	dc400f15 	stw	r17,60(sp)
 2004aac:	dc400404 	addi	r17,sp,16
 2004ab0:	2005883a 	mov	r2,r4
 2004ab4:	2807883a 	mov	r3,r5
 2004ab8:	dc000e15 	stw	r16,56(sp)
 2004abc:	d809883a 	mov	r4,sp
 2004ac0:	880b883a 	mov	r5,r17
 2004ac4:	dc000904 	addi	r16,sp,36
 2004ac8:	d8c00115 	stw	r3,4(sp)
 2004acc:	d8800015 	stw	r2,0(sp)
 2004ad0:	d9800215 	stw	r6,8(sp)
 2004ad4:	dfc01015 	stw	ra,64(sp)
 2004ad8:	d9c00315 	stw	r7,12(sp)
 2004adc:	20055a00 	call	20055a0 <__unpack_d>
 2004ae0:	d9000204 	addi	r4,sp,8
 2004ae4:	800b883a 	mov	r5,r16
 2004ae8:	20055a00 	call	20055a0 <__unpack_d>
 2004aec:	d8800417 	ldw	r2,16(sp)
 2004af0:	00c00044 	movi	r3,1
 2004af4:	180d883a 	mov	r6,r3
 2004af8:	1880062e 	bgeu	r3,r2,2004b14 <__nedf2+0x70>
 2004afc:	d8800917 	ldw	r2,36(sp)
 2004b00:	8809883a 	mov	r4,r17
 2004b04:	800b883a 	mov	r5,r16
 2004b08:	1880022e 	bgeu	r3,r2,2004b14 <__nedf2+0x70>
 2004b0c:	20056d80 	call	20056d8 <__fpcmp_parts_d>
 2004b10:	100d883a 	mov	r6,r2
 2004b14:	3005883a 	mov	r2,r6
 2004b18:	dfc01017 	ldw	ra,64(sp)
 2004b1c:	dc400f17 	ldw	r17,60(sp)
 2004b20:	dc000e17 	ldw	r16,56(sp)
 2004b24:	dec01104 	addi	sp,sp,68
 2004b28:	f800283a 	ret

02004b2c <__gtdf2>:
 2004b2c:	deffef04 	addi	sp,sp,-68
 2004b30:	dc400f15 	stw	r17,60(sp)
 2004b34:	dc400404 	addi	r17,sp,16
 2004b38:	2005883a 	mov	r2,r4
 2004b3c:	2807883a 	mov	r3,r5
 2004b40:	dc000e15 	stw	r16,56(sp)
 2004b44:	d809883a 	mov	r4,sp
 2004b48:	880b883a 	mov	r5,r17
 2004b4c:	dc000904 	addi	r16,sp,36
 2004b50:	d8c00115 	stw	r3,4(sp)
 2004b54:	d8800015 	stw	r2,0(sp)
 2004b58:	d9800215 	stw	r6,8(sp)
 2004b5c:	dfc01015 	stw	ra,64(sp)
 2004b60:	d9c00315 	stw	r7,12(sp)
 2004b64:	20055a00 	call	20055a0 <__unpack_d>
 2004b68:	d9000204 	addi	r4,sp,8
 2004b6c:	800b883a 	mov	r5,r16
 2004b70:	20055a00 	call	20055a0 <__unpack_d>
 2004b74:	d8800417 	ldw	r2,16(sp)
 2004b78:	00c00044 	movi	r3,1
 2004b7c:	01bfffc4 	movi	r6,-1
 2004b80:	1880062e 	bgeu	r3,r2,2004b9c <__gtdf2+0x70>
 2004b84:	d8800917 	ldw	r2,36(sp)
 2004b88:	8809883a 	mov	r4,r17
 2004b8c:	800b883a 	mov	r5,r16
 2004b90:	1880022e 	bgeu	r3,r2,2004b9c <__gtdf2+0x70>
 2004b94:	20056d80 	call	20056d8 <__fpcmp_parts_d>
 2004b98:	100d883a 	mov	r6,r2
 2004b9c:	3005883a 	mov	r2,r6
 2004ba0:	dfc01017 	ldw	ra,64(sp)
 2004ba4:	dc400f17 	ldw	r17,60(sp)
 2004ba8:	dc000e17 	ldw	r16,56(sp)
 2004bac:	dec01104 	addi	sp,sp,68
 2004bb0:	f800283a 	ret

02004bb4 <__ltdf2>:
 2004bb4:	deffef04 	addi	sp,sp,-68
 2004bb8:	dc400f15 	stw	r17,60(sp)
 2004bbc:	dc400404 	addi	r17,sp,16
 2004bc0:	2005883a 	mov	r2,r4
 2004bc4:	2807883a 	mov	r3,r5
 2004bc8:	dc000e15 	stw	r16,56(sp)
 2004bcc:	d809883a 	mov	r4,sp
 2004bd0:	880b883a 	mov	r5,r17
 2004bd4:	dc000904 	addi	r16,sp,36
 2004bd8:	d8c00115 	stw	r3,4(sp)
 2004bdc:	d8800015 	stw	r2,0(sp)
 2004be0:	d9800215 	stw	r6,8(sp)
 2004be4:	dfc01015 	stw	ra,64(sp)
 2004be8:	d9c00315 	stw	r7,12(sp)
 2004bec:	20055a00 	call	20055a0 <__unpack_d>
 2004bf0:	d9000204 	addi	r4,sp,8
 2004bf4:	800b883a 	mov	r5,r16
 2004bf8:	20055a00 	call	20055a0 <__unpack_d>
 2004bfc:	d8800417 	ldw	r2,16(sp)
 2004c00:	00c00044 	movi	r3,1
 2004c04:	180d883a 	mov	r6,r3
 2004c08:	1880062e 	bgeu	r3,r2,2004c24 <__ltdf2+0x70>
 2004c0c:	d8800917 	ldw	r2,36(sp)
 2004c10:	8809883a 	mov	r4,r17
 2004c14:	800b883a 	mov	r5,r16
 2004c18:	1880022e 	bgeu	r3,r2,2004c24 <__ltdf2+0x70>
 2004c1c:	20056d80 	call	20056d8 <__fpcmp_parts_d>
 2004c20:	100d883a 	mov	r6,r2
 2004c24:	3005883a 	mov	r2,r6
 2004c28:	dfc01017 	ldw	ra,64(sp)
 2004c2c:	dc400f17 	ldw	r17,60(sp)
 2004c30:	dc000e17 	ldw	r16,56(sp)
 2004c34:	dec01104 	addi	sp,sp,68
 2004c38:	f800283a 	ret

02004c3c <__ledf2>:
 2004c3c:	deffef04 	addi	sp,sp,-68
 2004c40:	dc400f15 	stw	r17,60(sp)
 2004c44:	dc400404 	addi	r17,sp,16
 2004c48:	2005883a 	mov	r2,r4
 2004c4c:	2807883a 	mov	r3,r5
 2004c50:	dc000e15 	stw	r16,56(sp)
 2004c54:	d809883a 	mov	r4,sp
 2004c58:	880b883a 	mov	r5,r17
 2004c5c:	dc000904 	addi	r16,sp,36
 2004c60:	d8c00115 	stw	r3,4(sp)
 2004c64:	d8800015 	stw	r2,0(sp)
 2004c68:	d9800215 	stw	r6,8(sp)
 2004c6c:	dfc01015 	stw	ra,64(sp)
 2004c70:	d9c00315 	stw	r7,12(sp)
 2004c74:	20055a00 	call	20055a0 <__unpack_d>
 2004c78:	d9000204 	addi	r4,sp,8
 2004c7c:	800b883a 	mov	r5,r16
 2004c80:	20055a00 	call	20055a0 <__unpack_d>
 2004c84:	d8800417 	ldw	r2,16(sp)
 2004c88:	00c00044 	movi	r3,1
 2004c8c:	180d883a 	mov	r6,r3
 2004c90:	1880062e 	bgeu	r3,r2,2004cac <__ledf2+0x70>
 2004c94:	d8800917 	ldw	r2,36(sp)
 2004c98:	8809883a 	mov	r4,r17
 2004c9c:	800b883a 	mov	r5,r16
 2004ca0:	1880022e 	bgeu	r3,r2,2004cac <__ledf2+0x70>
 2004ca4:	20056d80 	call	20056d8 <__fpcmp_parts_d>
 2004ca8:	100d883a 	mov	r6,r2
 2004cac:	3005883a 	mov	r2,r6
 2004cb0:	dfc01017 	ldw	ra,64(sp)
 2004cb4:	dc400f17 	ldw	r17,60(sp)
 2004cb8:	dc000e17 	ldw	r16,56(sp)
 2004cbc:	dec01104 	addi	sp,sp,68
 2004cc0:	f800283a 	ret

02004cc4 <__floatsidf>:
 2004cc4:	2006d7fa 	srli	r3,r4,31
 2004cc8:	defff604 	addi	sp,sp,-40
 2004ccc:	008000c4 	movi	r2,3
 2004cd0:	dfc00915 	stw	ra,36(sp)
 2004cd4:	dcc00815 	stw	r19,32(sp)
 2004cd8:	dc800715 	stw	r18,28(sp)
 2004cdc:	dc400615 	stw	r17,24(sp)
 2004ce0:	dc000515 	stw	r16,20(sp)
 2004ce4:	d8800015 	stw	r2,0(sp)
 2004ce8:	d8c00115 	stw	r3,4(sp)
 2004cec:	20000f1e 	bne	r4,zero,2004d2c <__floatsidf+0x68>
 2004cf0:	00800084 	movi	r2,2
 2004cf4:	d8800015 	stw	r2,0(sp)
 2004cf8:	d809883a 	mov	r4,sp
 2004cfc:	200528c0 	call	200528c <__pack_d>
 2004d00:	1009883a 	mov	r4,r2
 2004d04:	180b883a 	mov	r5,r3
 2004d08:	2005883a 	mov	r2,r4
 2004d0c:	2807883a 	mov	r3,r5
 2004d10:	dfc00917 	ldw	ra,36(sp)
 2004d14:	dcc00817 	ldw	r19,32(sp)
 2004d18:	dc800717 	ldw	r18,28(sp)
 2004d1c:	dc400617 	ldw	r17,24(sp)
 2004d20:	dc000517 	ldw	r16,20(sp)
 2004d24:	dec00a04 	addi	sp,sp,40
 2004d28:	f800283a 	ret
 2004d2c:	00800f04 	movi	r2,60
 2004d30:	1807003a 	cmpeq	r3,r3,zero
 2004d34:	d8800215 	stw	r2,8(sp)
 2004d38:	18001126 	beq	r3,zero,2004d80 <__floatsidf+0xbc>
 2004d3c:	0027883a 	mov	r19,zero
 2004d40:	2025883a 	mov	r18,r4
 2004d44:	d9000315 	stw	r4,12(sp)
 2004d48:	dcc00415 	stw	r19,16(sp)
 2004d4c:	200520c0 	call	200520c <__clzsi2>
 2004d50:	11000744 	addi	r4,r2,29
 2004d54:	013fe80e 	bge	zero,r4,2004cf8 <__floatsidf+0x34>
 2004d58:	10bfff44 	addi	r2,r2,-3
 2004d5c:	10000c16 	blt	r2,zero,2004d90 <__floatsidf+0xcc>
 2004d60:	90a2983a 	sll	r17,r18,r2
 2004d64:	0021883a 	mov	r16,zero
 2004d68:	d8800217 	ldw	r2,8(sp)
 2004d6c:	dc400415 	stw	r17,16(sp)
 2004d70:	dc000315 	stw	r16,12(sp)
 2004d74:	1105c83a 	sub	r2,r2,r4
 2004d78:	d8800215 	stw	r2,8(sp)
 2004d7c:	003fde06 	br	2004cf8 <__floatsidf+0x34>
 2004d80:	00a00034 	movhi	r2,32768
 2004d84:	20800a26 	beq	r4,r2,2004db0 <__floatsidf+0xec>
 2004d88:	0109c83a 	sub	r4,zero,r4
 2004d8c:	003feb06 	br	2004d3c <__floatsidf+0x78>
 2004d90:	9006d07a 	srli	r3,r18,1
 2004d94:	008007c4 	movi	r2,31
 2004d98:	1105c83a 	sub	r2,r2,r4
 2004d9c:	1886d83a 	srl	r3,r3,r2
 2004da0:	9922983a 	sll	r17,r19,r4
 2004da4:	9120983a 	sll	r16,r18,r4
 2004da8:	1c62b03a 	or	r17,r3,r17
 2004dac:	003fee06 	br	2004d68 <__floatsidf+0xa4>
 2004db0:	0009883a 	mov	r4,zero
 2004db4:	01707834 	movhi	r5,49632
 2004db8:	003fd306 	br	2004d08 <__floatsidf+0x44>

02004dbc <__fixdfsi>:
 2004dbc:	defff804 	addi	sp,sp,-32
 2004dc0:	2005883a 	mov	r2,r4
 2004dc4:	2807883a 	mov	r3,r5
 2004dc8:	d809883a 	mov	r4,sp
 2004dcc:	d9400204 	addi	r5,sp,8
 2004dd0:	d8c00115 	stw	r3,4(sp)
 2004dd4:	d8800015 	stw	r2,0(sp)
 2004dd8:	dfc00715 	stw	ra,28(sp)
 2004ddc:	20055a00 	call	20055a0 <__unpack_d>
 2004de0:	d8c00217 	ldw	r3,8(sp)
 2004de4:	00800084 	movi	r2,2
 2004de8:	1880051e 	bne	r3,r2,2004e00 <__fixdfsi+0x44>
 2004dec:	0007883a 	mov	r3,zero
 2004df0:	1805883a 	mov	r2,r3
 2004df4:	dfc00717 	ldw	ra,28(sp)
 2004df8:	dec00804 	addi	sp,sp,32
 2004dfc:	f800283a 	ret
 2004e00:	00800044 	movi	r2,1
 2004e04:	10fff92e 	bgeu	r2,r3,2004dec <__fixdfsi+0x30>
 2004e08:	00800104 	movi	r2,4
 2004e0c:	18800426 	beq	r3,r2,2004e20 <__fixdfsi+0x64>
 2004e10:	d8c00417 	ldw	r3,16(sp)
 2004e14:	183ff516 	blt	r3,zero,2004dec <__fixdfsi+0x30>
 2004e18:	00800784 	movi	r2,30
 2004e1c:	10c0080e 	bge	r2,r3,2004e40 <__fixdfsi+0x84>
 2004e20:	d8800317 	ldw	r2,12(sp)
 2004e24:	1000121e 	bne	r2,zero,2004e70 <__fixdfsi+0xb4>
 2004e28:	00e00034 	movhi	r3,32768
 2004e2c:	18ffffc4 	addi	r3,r3,-1
 2004e30:	1805883a 	mov	r2,r3
 2004e34:	dfc00717 	ldw	ra,28(sp)
 2004e38:	dec00804 	addi	sp,sp,32
 2004e3c:	f800283a 	ret
 2004e40:	00800f04 	movi	r2,60
 2004e44:	10d1c83a 	sub	r8,r2,r3
 2004e48:	40bff804 	addi	r2,r8,-32
 2004e4c:	d9800517 	ldw	r6,20(sp)
 2004e50:	d9c00617 	ldw	r7,24(sp)
 2004e54:	10000816 	blt	r2,zero,2004e78 <__fixdfsi+0xbc>
 2004e58:	3888d83a 	srl	r4,r7,r2
 2004e5c:	d8800317 	ldw	r2,12(sp)
 2004e60:	2007883a 	mov	r3,r4
 2004e64:	103fe226 	beq	r2,zero,2004df0 <__fixdfsi+0x34>
 2004e68:	0107c83a 	sub	r3,zero,r4
 2004e6c:	003fe006 	br	2004df0 <__fixdfsi+0x34>
 2004e70:	00e00034 	movhi	r3,32768
 2004e74:	003fde06 	br	2004df0 <__fixdfsi+0x34>
 2004e78:	39c7883a 	add	r3,r7,r7
 2004e7c:	008007c4 	movi	r2,31
 2004e80:	1205c83a 	sub	r2,r2,r8
 2004e84:	1886983a 	sll	r3,r3,r2
 2004e88:	3208d83a 	srl	r4,r6,r8
 2004e8c:	1908b03a 	or	r4,r3,r4
 2004e90:	003ff206 	br	2004e5c <__fixdfsi+0xa0>

02004e94 <__floatunsidf>:
 2004e94:	defff204 	addi	sp,sp,-56
 2004e98:	dfc00d15 	stw	ra,52(sp)
 2004e9c:	ddc00c15 	stw	r23,48(sp)
 2004ea0:	dd800b15 	stw	r22,44(sp)
 2004ea4:	dd400a15 	stw	r21,40(sp)
 2004ea8:	dd000915 	stw	r20,36(sp)
 2004eac:	dcc00815 	stw	r19,32(sp)
 2004eb0:	dc800715 	stw	r18,28(sp)
 2004eb4:	dc400615 	stw	r17,24(sp)
 2004eb8:	dc000515 	stw	r16,20(sp)
 2004ebc:	d8000115 	stw	zero,4(sp)
 2004ec0:	20000f1e 	bne	r4,zero,2004f00 <__floatunsidf+0x6c>
 2004ec4:	00800084 	movi	r2,2
 2004ec8:	d8800015 	stw	r2,0(sp)
 2004ecc:	d809883a 	mov	r4,sp
 2004ed0:	200528c0 	call	200528c <__pack_d>
 2004ed4:	dfc00d17 	ldw	ra,52(sp)
 2004ed8:	ddc00c17 	ldw	r23,48(sp)
 2004edc:	dd800b17 	ldw	r22,44(sp)
 2004ee0:	dd400a17 	ldw	r21,40(sp)
 2004ee4:	dd000917 	ldw	r20,36(sp)
 2004ee8:	dcc00817 	ldw	r19,32(sp)
 2004eec:	dc800717 	ldw	r18,28(sp)
 2004ef0:	dc400617 	ldw	r17,24(sp)
 2004ef4:	dc000517 	ldw	r16,20(sp)
 2004ef8:	dec00e04 	addi	sp,sp,56
 2004efc:	f800283a 	ret
 2004f00:	008000c4 	movi	r2,3
 2004f04:	00c00f04 	movi	r3,60
 2004f08:	002f883a 	mov	r23,zero
 2004f0c:	202d883a 	mov	r22,r4
 2004f10:	d8800015 	stw	r2,0(sp)
 2004f14:	d8c00215 	stw	r3,8(sp)
 2004f18:	d9000315 	stw	r4,12(sp)
 2004f1c:	ddc00415 	stw	r23,16(sp)
 2004f20:	200520c0 	call	200520c <__clzsi2>
 2004f24:	12400744 	addi	r9,r2,29
 2004f28:	48000b16 	blt	r9,zero,2004f58 <__floatunsidf+0xc4>
 2004f2c:	483fe726 	beq	r9,zero,2004ecc <__floatunsidf+0x38>
 2004f30:	10bfff44 	addi	r2,r2,-3
 2004f34:	10002e16 	blt	r2,zero,2004ff0 <__floatunsidf+0x15c>
 2004f38:	b0a2983a 	sll	r17,r22,r2
 2004f3c:	0021883a 	mov	r16,zero
 2004f40:	d8800217 	ldw	r2,8(sp)
 2004f44:	dc400415 	stw	r17,16(sp)
 2004f48:	dc000315 	stw	r16,12(sp)
 2004f4c:	1245c83a 	sub	r2,r2,r9
 2004f50:	d8800215 	stw	r2,8(sp)
 2004f54:	003fdd06 	br	2004ecc <__floatunsidf+0x38>
 2004f58:	0255c83a 	sub	r10,zero,r9
 2004f5c:	51bff804 	addi	r6,r10,-32
 2004f60:	30001b16 	blt	r6,zero,2004fd0 <__floatunsidf+0x13c>
 2004f64:	b9a8d83a 	srl	r20,r23,r6
 2004f68:	002b883a 	mov	r21,zero
 2004f6c:	000f883a 	mov	r7,zero
 2004f70:	01000044 	movi	r4,1
 2004f74:	0011883a 	mov	r8,zero
 2004f78:	30002516 	blt	r6,zero,2005010 <__floatunsidf+0x17c>
 2004f7c:	21a6983a 	sll	r19,r4,r6
 2004f80:	0025883a 	mov	r18,zero
 2004f84:	00bfffc4 	movi	r2,-1
 2004f88:	9089883a 	add	r4,r18,r2
 2004f8c:	988b883a 	add	r5,r19,r2
 2004f90:	248d803a 	cmpltu	r6,r4,r18
 2004f94:	314b883a 	add	r5,r6,r5
 2004f98:	b104703a 	and	r2,r22,r4
 2004f9c:	b946703a 	and	r3,r23,r5
 2004fa0:	10c4b03a 	or	r2,r2,r3
 2004fa4:	10000226 	beq	r2,zero,2004fb0 <__floatunsidf+0x11c>
 2004fa8:	01c00044 	movi	r7,1
 2004fac:	0011883a 	mov	r8,zero
 2004fb0:	d9000217 	ldw	r4,8(sp)
 2004fb4:	a1c4b03a 	or	r2,r20,r7
 2004fb8:	aa06b03a 	or	r3,r21,r8
 2004fbc:	2249c83a 	sub	r4,r4,r9
 2004fc0:	d8c00415 	stw	r3,16(sp)
 2004fc4:	d9000215 	stw	r4,8(sp)
 2004fc8:	d8800315 	stw	r2,12(sp)
 2004fcc:	003fbf06 	br	2004ecc <__floatunsidf+0x38>
 2004fd0:	bdc7883a 	add	r3,r23,r23
 2004fd4:	008007c4 	movi	r2,31
 2004fd8:	1285c83a 	sub	r2,r2,r10
 2004fdc:	1886983a 	sll	r3,r3,r2
 2004fe0:	b2a8d83a 	srl	r20,r22,r10
 2004fe4:	baaad83a 	srl	r21,r23,r10
 2004fe8:	1d28b03a 	or	r20,r3,r20
 2004fec:	003fdf06 	br	2004f6c <__floatunsidf+0xd8>
 2004ff0:	b006d07a 	srli	r3,r22,1
 2004ff4:	008007c4 	movi	r2,31
 2004ff8:	1245c83a 	sub	r2,r2,r9
 2004ffc:	1886d83a 	srl	r3,r3,r2
 2005000:	ba62983a 	sll	r17,r23,r9
 2005004:	b260983a 	sll	r16,r22,r9
 2005008:	1c62b03a 	or	r17,r3,r17
 200500c:	003fcc06 	br	2004f40 <__floatunsidf+0xac>
 2005010:	2006d07a 	srli	r3,r4,1
 2005014:	008007c4 	movi	r2,31
 2005018:	1285c83a 	sub	r2,r2,r10
 200501c:	18a6d83a 	srl	r19,r3,r2
 2005020:	22a4983a 	sll	r18,r4,r10
 2005024:	003fd706 	br	2004f84 <__floatunsidf+0xf0>

02005028 <udivmodsi4>:
 2005028:	29001b2e 	bgeu	r5,r4,2005098 <udivmodsi4+0x70>
 200502c:	28001a16 	blt	r5,zero,2005098 <udivmodsi4+0x70>
 2005030:	00800044 	movi	r2,1
 2005034:	0007883a 	mov	r3,zero
 2005038:	01c007c4 	movi	r7,31
 200503c:	00000306 	br	200504c <udivmodsi4+0x24>
 2005040:	19c01326 	beq	r3,r7,2005090 <udivmodsi4+0x68>
 2005044:	18c00044 	addi	r3,r3,1
 2005048:	28000416 	blt	r5,zero,200505c <udivmodsi4+0x34>
 200504c:	294b883a 	add	r5,r5,r5
 2005050:	1085883a 	add	r2,r2,r2
 2005054:	293ffa36 	bltu	r5,r4,2005040 <udivmodsi4+0x18>
 2005058:	10000d26 	beq	r2,zero,2005090 <udivmodsi4+0x68>
 200505c:	0007883a 	mov	r3,zero
 2005060:	21400236 	bltu	r4,r5,200506c <udivmodsi4+0x44>
 2005064:	2149c83a 	sub	r4,r4,r5
 2005068:	1886b03a 	or	r3,r3,r2
 200506c:	1004d07a 	srli	r2,r2,1
 2005070:	280ad07a 	srli	r5,r5,1
 2005074:	103ffa1e 	bne	r2,zero,2005060 <udivmodsi4+0x38>
 2005078:	30000226 	beq	r6,zero,2005084 <udivmodsi4+0x5c>
 200507c:	2005883a 	mov	r2,r4
 2005080:	f800283a 	ret
 2005084:	1809883a 	mov	r4,r3
 2005088:	2005883a 	mov	r2,r4
 200508c:	f800283a 	ret
 2005090:	0007883a 	mov	r3,zero
 2005094:	003ff806 	br	2005078 <udivmodsi4+0x50>
 2005098:	00800044 	movi	r2,1
 200509c:	0007883a 	mov	r3,zero
 20050a0:	003fef06 	br	2005060 <udivmodsi4+0x38>

020050a4 <__divsi3>:
 20050a4:	defffe04 	addi	sp,sp,-8
 20050a8:	dc000015 	stw	r16,0(sp)
 20050ac:	dfc00115 	stw	ra,4(sp)
 20050b0:	0021883a 	mov	r16,zero
 20050b4:	20000c16 	blt	r4,zero,20050e8 <__divsi3+0x44>
 20050b8:	000d883a 	mov	r6,zero
 20050bc:	28000e16 	blt	r5,zero,20050f8 <__divsi3+0x54>
 20050c0:	20050280 	call	2005028 <udivmodsi4>
 20050c4:	1007883a 	mov	r3,r2
 20050c8:	8005003a 	cmpeq	r2,r16,zero
 20050cc:	1000011e 	bne	r2,zero,20050d4 <__divsi3+0x30>
 20050d0:	00c7c83a 	sub	r3,zero,r3
 20050d4:	1805883a 	mov	r2,r3
 20050d8:	dfc00117 	ldw	ra,4(sp)
 20050dc:	dc000017 	ldw	r16,0(sp)
 20050e0:	dec00204 	addi	sp,sp,8
 20050e4:	f800283a 	ret
 20050e8:	0109c83a 	sub	r4,zero,r4
 20050ec:	04000044 	movi	r16,1
 20050f0:	000d883a 	mov	r6,zero
 20050f4:	283ff20e 	bge	r5,zero,20050c0 <__divsi3+0x1c>
 20050f8:	014bc83a 	sub	r5,zero,r5
 20050fc:	8021003a 	cmpeq	r16,r16,zero
 2005100:	003fef06 	br	20050c0 <__divsi3+0x1c>

02005104 <__modsi3>:
 2005104:	deffff04 	addi	sp,sp,-4
 2005108:	dfc00015 	stw	ra,0(sp)
 200510c:	01800044 	movi	r6,1
 2005110:	2807883a 	mov	r3,r5
 2005114:	20000416 	blt	r4,zero,2005128 <__modsi3+0x24>
 2005118:	28000c16 	blt	r5,zero,200514c <__modsi3+0x48>
 200511c:	dfc00017 	ldw	ra,0(sp)
 2005120:	dec00104 	addi	sp,sp,4
 2005124:	20050281 	jmpi	2005028 <udivmodsi4>
 2005128:	0109c83a 	sub	r4,zero,r4
 200512c:	28000b16 	blt	r5,zero,200515c <__modsi3+0x58>
 2005130:	180b883a 	mov	r5,r3
 2005134:	01800044 	movi	r6,1
 2005138:	20050280 	call	2005028 <udivmodsi4>
 200513c:	0085c83a 	sub	r2,zero,r2
 2005140:	dfc00017 	ldw	ra,0(sp)
 2005144:	dec00104 	addi	sp,sp,4
 2005148:	f800283a 	ret
 200514c:	014bc83a 	sub	r5,zero,r5
 2005150:	dfc00017 	ldw	ra,0(sp)
 2005154:	dec00104 	addi	sp,sp,4
 2005158:	20050281 	jmpi	2005028 <udivmodsi4>
 200515c:	0147c83a 	sub	r3,zero,r5
 2005160:	003ff306 	br	2005130 <__modsi3+0x2c>

02005164 <__udivsi3>:
 2005164:	000d883a 	mov	r6,zero
 2005168:	20050281 	jmpi	2005028 <udivmodsi4>

0200516c <__umodsi3>:
 200516c:	01800044 	movi	r6,1
 2005170:	20050281 	jmpi	2005028 <udivmodsi4>

02005174 <__muldi3>:
 2005174:	2011883a 	mov	r8,r4
 2005178:	427fffcc 	andi	r9,r8,65535
 200517c:	4018d43a 	srli	r12,r8,16
 2005180:	32bfffcc 	andi	r10,r6,65535
 2005184:	3016d43a 	srli	r11,r6,16
 2005188:	4a85383a 	mul	r2,r9,r10
 200518c:	6295383a 	mul	r10,r12,r10
 2005190:	4ad3383a 	mul	r9,r9,r11
 2005194:	113fffcc 	andi	r4,r2,65535
 2005198:	1004d43a 	srli	r2,r2,16
 200519c:	4a93883a 	add	r9,r9,r10
 20051a0:	3807883a 	mov	r3,r7
 20051a4:	1245883a 	add	r2,r2,r9
 20051a8:	280f883a 	mov	r7,r5
 20051ac:	180b883a 	mov	r5,r3
 20051b0:	1006943a 	slli	r3,r2,16
 20051b4:	defffd04 	addi	sp,sp,-12
 20051b8:	dc800215 	stw	r18,8(sp)
 20051bc:	1907883a 	add	r3,r3,r4
 20051c0:	dc400115 	stw	r17,4(sp)
 20051c4:	dc000015 	stw	r16,0(sp)
 20051c8:	4165383a 	mul	r18,r8,r5
 20051cc:	31e3383a 	mul	r17,r6,r7
 20051d0:	1012d43a 	srli	r9,r2,16
 20051d4:	62d9383a 	mul	r12,r12,r11
 20051d8:	181f883a 	mov	r15,r3
 20051dc:	1280022e 	bgeu	r2,r10,20051e8 <__muldi3+0x74>
 20051e0:	00800074 	movhi	r2,1
 20051e4:	6099883a 	add	r12,r12,r2
 20051e8:	624d883a 	add	r6,r12,r9
 20051ec:	9187883a 	add	r3,r18,r6
 20051f0:	88c7883a 	add	r3,r17,r3
 20051f4:	7805883a 	mov	r2,r15
 20051f8:	dc800217 	ldw	r18,8(sp)
 20051fc:	dc400117 	ldw	r17,4(sp)
 2005200:	dc000017 	ldw	r16,0(sp)
 2005204:	dec00304 	addi	sp,sp,12
 2005208:	f800283a 	ret

0200520c <__clzsi2>:
 200520c:	00bfffd4 	movui	r2,65535
 2005210:	11000e36 	bltu	r2,r4,200524c <__clzsi2+0x40>
 2005214:	00803fc4 	movi	r2,255
 2005218:	01400204 	movi	r5,8
 200521c:	0007883a 	mov	r3,zero
 2005220:	11001036 	bltu	r2,r4,2005264 <__clzsi2+0x58>
 2005224:	000b883a 	mov	r5,zero
 2005228:	20c6d83a 	srl	r3,r4,r3
 200522c:	00808074 	movhi	r2,513
 2005230:	10a70104 	addi	r2,r2,-25596
 2005234:	1887883a 	add	r3,r3,r2
 2005238:	18800003 	ldbu	r2,0(r3)
 200523c:	00c00804 	movi	r3,32
 2005240:	2885883a 	add	r2,r5,r2
 2005244:	1885c83a 	sub	r2,r3,r2
 2005248:	f800283a 	ret
 200524c:	01400404 	movi	r5,16
 2005250:	00804034 	movhi	r2,256
 2005254:	10bfffc4 	addi	r2,r2,-1
 2005258:	2807883a 	mov	r3,r5
 200525c:	113ff22e 	bgeu	r2,r4,2005228 <__clzsi2+0x1c>
 2005260:	01400604 	movi	r5,24
 2005264:	2807883a 	mov	r3,r5
 2005268:	20c6d83a 	srl	r3,r4,r3
 200526c:	00808074 	movhi	r2,513
 2005270:	10a70104 	addi	r2,r2,-25596
 2005274:	1887883a 	add	r3,r3,r2
 2005278:	18800003 	ldbu	r2,0(r3)
 200527c:	00c00804 	movi	r3,32
 2005280:	2885883a 	add	r2,r5,r2
 2005284:	1885c83a 	sub	r2,r3,r2
 2005288:	f800283a 	ret

0200528c <__pack_d>:
 200528c:	20c00017 	ldw	r3,0(r4)
 2005290:	defffd04 	addi	sp,sp,-12
 2005294:	dc000015 	stw	r16,0(sp)
 2005298:	dc800215 	stw	r18,8(sp)
 200529c:	dc400115 	stw	r17,4(sp)
 20052a0:	00800044 	movi	r2,1
 20052a4:	22000317 	ldw	r8,12(r4)
 20052a8:	001f883a 	mov	r15,zero
 20052ac:	22400417 	ldw	r9,16(r4)
 20052b0:	24000117 	ldw	r16,4(r4)
 20052b4:	10c0552e 	bgeu	r2,r3,200540c <__pack_d+0x180>
 20052b8:	00800104 	movi	r2,4
 20052bc:	18804f26 	beq	r3,r2,20053fc <__pack_d+0x170>
 20052c0:	00800084 	movi	r2,2
 20052c4:	18800226 	beq	r3,r2,20052d0 <__pack_d+0x44>
 20052c8:	4244b03a 	or	r2,r8,r9
 20052cc:	10001a1e 	bne	r2,zero,2005338 <__pack_d+0xac>
 20052d0:	000d883a 	mov	r6,zero
 20052d4:	000f883a 	mov	r7,zero
 20052d8:	0011883a 	mov	r8,zero
 20052dc:	00800434 	movhi	r2,16
 20052e0:	10bfffc4 	addi	r2,r2,-1
 20052e4:	301d883a 	mov	r14,r6
 20052e8:	3884703a 	and	r2,r7,r2
 20052ec:	400a953a 	slli	r5,r8,20
 20052f0:	79bffc2c 	andhi	r6,r15,65520
 20052f4:	308cb03a 	or	r6,r6,r2
 20052f8:	00e00434 	movhi	r3,32784
 20052fc:	18ffffc4 	addi	r3,r3,-1
 2005300:	800497fa 	slli	r2,r16,31
 2005304:	30c6703a 	and	r3,r6,r3
 2005308:	1946b03a 	or	r3,r3,r5
 200530c:	01600034 	movhi	r5,32768
 2005310:	297fffc4 	addi	r5,r5,-1
 2005314:	194a703a 	and	r5,r3,r5
 2005318:	288ab03a 	or	r5,r5,r2
 200531c:	2807883a 	mov	r3,r5
 2005320:	7005883a 	mov	r2,r14
 2005324:	dc800217 	ldw	r18,8(sp)
 2005328:	dc400117 	ldw	r17,4(sp)
 200532c:	dc000017 	ldw	r16,0(sp)
 2005330:	dec00304 	addi	sp,sp,12
 2005334:	f800283a 	ret
 2005338:	21000217 	ldw	r4,8(r4)
 200533c:	00bf0084 	movi	r2,-1022
 2005340:	20803f16 	blt	r4,r2,2005440 <__pack_d+0x1b4>
 2005344:	0080ffc4 	movi	r2,1023
 2005348:	11002c16 	blt	r2,r4,20053fc <__pack_d+0x170>
 200534c:	00803fc4 	movi	r2,255
 2005350:	408c703a 	and	r6,r8,r2
 2005354:	00802004 	movi	r2,128
 2005358:	0007883a 	mov	r3,zero
 200535c:	000f883a 	mov	r7,zero
 2005360:	2280ffc4 	addi	r10,r4,1023
 2005364:	30801e26 	beq	r6,r2,20053e0 <__pack_d+0x154>
 2005368:	00801fc4 	movi	r2,127
 200536c:	4089883a 	add	r4,r8,r2
 2005370:	220d803a 	cmpltu	r6,r4,r8
 2005374:	324d883a 	add	r6,r6,r9
 2005378:	2011883a 	mov	r8,r4
 200537c:	3013883a 	mov	r9,r6
 2005380:	00880034 	movhi	r2,8192
 2005384:	10bfffc4 	addi	r2,r2,-1
 2005388:	12400d36 	bltu	r2,r9,20053c0 <__pack_d+0x134>
 200538c:	4804963a 	slli	r2,r9,24
 2005390:	400cd23a 	srli	r6,r8,8
 2005394:	480ed23a 	srli	r7,r9,8
 2005398:	013fffc4 	movi	r4,-1
 200539c:	118cb03a 	or	r6,r2,r6
 20053a0:	01400434 	movhi	r5,16
 20053a4:	297fffc4 	addi	r5,r5,-1
 20053a8:	3104703a 	and	r2,r6,r4
 20053ac:	3946703a 	and	r3,r7,r5
 20053b0:	5201ffcc 	andi	r8,r10,2047
 20053b4:	100d883a 	mov	r6,r2
 20053b8:	180f883a 	mov	r7,r3
 20053bc:	003fc706 	br	20052dc <__pack_d+0x50>
 20053c0:	480897fa 	slli	r4,r9,31
 20053c4:	4004d07a 	srli	r2,r8,1
 20053c8:	4806d07a 	srli	r3,r9,1
 20053cc:	52800044 	addi	r10,r10,1
 20053d0:	2084b03a 	or	r2,r4,r2
 20053d4:	1011883a 	mov	r8,r2
 20053d8:	1813883a 	mov	r9,r3
 20053dc:	003feb06 	br	200538c <__pack_d+0x100>
 20053e0:	383fe11e 	bne	r7,zero,2005368 <__pack_d+0xdc>
 20053e4:	01004004 	movi	r4,256
 20053e8:	4104703a 	and	r2,r8,r4
 20053ec:	10c4b03a 	or	r2,r2,r3
 20053f0:	103fe326 	beq	r2,zero,2005380 <__pack_d+0xf4>
 20053f4:	3005883a 	mov	r2,r6
 20053f8:	003fdc06 	br	200536c <__pack_d+0xe0>
 20053fc:	000d883a 	mov	r6,zero
 2005400:	000f883a 	mov	r7,zero
 2005404:	0201ffc4 	movi	r8,2047
 2005408:	003fb406 	br	20052dc <__pack_d+0x50>
 200540c:	0005883a 	mov	r2,zero
 2005410:	00c00234 	movhi	r3,8
 2005414:	408cb03a 	or	r6,r8,r2
 2005418:	48ceb03a 	or	r7,r9,r3
 200541c:	013fffc4 	movi	r4,-1
 2005420:	01400434 	movhi	r5,16
 2005424:	297fffc4 	addi	r5,r5,-1
 2005428:	3104703a 	and	r2,r6,r4
 200542c:	3946703a 	and	r3,r7,r5
 2005430:	100d883a 	mov	r6,r2
 2005434:	180f883a 	mov	r7,r3
 2005438:	0201ffc4 	movi	r8,2047
 200543c:	003fa706 	br	20052dc <__pack_d+0x50>
 2005440:	1109c83a 	sub	r4,r2,r4
 2005444:	00800e04 	movi	r2,56
 2005448:	11004316 	blt	r2,r4,2005558 <__pack_d+0x2cc>
 200544c:	21fff804 	addi	r7,r4,-32
 2005450:	38004516 	blt	r7,zero,2005568 <__pack_d+0x2dc>
 2005454:	49d8d83a 	srl	r12,r9,r7
 2005458:	001b883a 	mov	r13,zero
 200545c:	0023883a 	mov	r17,zero
 2005460:	01400044 	movi	r5,1
 2005464:	0025883a 	mov	r18,zero
 2005468:	38004716 	blt	r7,zero,2005588 <__pack_d+0x2fc>
 200546c:	29d6983a 	sll	r11,r5,r7
 2005470:	0015883a 	mov	r10,zero
 2005474:	00bfffc4 	movi	r2,-1
 2005478:	5089883a 	add	r4,r10,r2
 200547c:	588b883a 	add	r5,r11,r2
 2005480:	228d803a 	cmpltu	r6,r4,r10
 2005484:	314b883a 	add	r5,r6,r5
 2005488:	4104703a 	and	r2,r8,r4
 200548c:	4946703a 	and	r3,r9,r5
 2005490:	10c4b03a 	or	r2,r2,r3
 2005494:	10000226 	beq	r2,zero,20054a0 <__pack_d+0x214>
 2005498:	04400044 	movi	r17,1
 200549c:	0025883a 	mov	r18,zero
 20054a0:	00803fc4 	movi	r2,255
 20054a4:	644eb03a 	or	r7,r12,r17
 20054a8:	3892703a 	and	r9,r7,r2
 20054ac:	00802004 	movi	r2,128
 20054b0:	6c90b03a 	or	r8,r13,r18
 20054b4:	0015883a 	mov	r10,zero
 20054b8:	48801626 	beq	r9,r2,2005514 <__pack_d+0x288>
 20054bc:	01001fc4 	movi	r4,127
 20054c0:	3905883a 	add	r2,r7,r4
 20054c4:	11cd803a 	cmpltu	r6,r2,r7
 20054c8:	320d883a 	add	r6,r6,r8
 20054cc:	100f883a 	mov	r7,r2
 20054d0:	00840034 	movhi	r2,4096
 20054d4:	10bfffc4 	addi	r2,r2,-1
 20054d8:	3011883a 	mov	r8,r6
 20054dc:	0007883a 	mov	r3,zero
 20054e0:	11801b36 	bltu	r2,r6,2005550 <__pack_d+0x2c4>
